(lp0
(S'reserved'
p1
NNNNNtp2
a(lp3
(I16
I112
I12
tp4
a(S"128'"
p5
S"64'"
p6
S"32'"
p7
S"16'"
p8
S"8'"
p9
S"4'"
p10
S"2'"
p11
S"1'"
p12
S"1/2'"
p13
tp14
aS'Osc 1 Octave'
p15
aS'Octave'
p16
aS'Osc 1'
p17
aS'Osc_1_Octave'
p18
aa(lp19
(I52
I76
I1
tp20
a(S'-12'
p21
S'-11'
p22
S'-10'
p23
S'-9'
p24
S'-8'
p25
S'-7'
p26
S'-6'
p27
S'-5'
p28
S'-4'
p29
S'-3'
p30
S'-2'
p31
S'-1'
p32
S'0'
p33
S'+1'
p34
S'+2'
p35
S'+3'
p36
S'+4'
p37
S'+5'
p38
S'+6'
p39
S'+7'
p40
S'+8'
p41
S'+9'
p42
S'+10'
p43
S'+11'
p44
S'+12'
p45
tp46
aS'Osc 1 Semitone'
p47
aS'Semitone'
p48
aS'Osc 1'
p49
aS'Osc_1_Semitone'
p50
aa(lp51
(I0
I127
I1
tp52
a(S'-64'
p53
S'-63'
p54
S'-62'
p55
S'-61'
p56
S'-60'
p57
S'-59'
p58
S'-58'
p59
S'-57'
p60
S'-56'
p61
S'-55'
p62
S'-54'
p63
S'-53'
p64
S'-52'
p65
S'-51'
p66
S'-50'
p67
S'-49'
p68
S'-48'
p69
S'-47'
p70
S'-46'
p71
S'-45'
p72
S'-44'
p73
S'-43'
p74
S'-42'
p75
S'-41'
p76
S'-40'
p77
S'-39'
p78
S'-38'
p79
S'-37'
p80
S'-36'
p81
S'-35'
p82
S'-34'
p83
S'-33'
p84
S'-32'
p85
S'-31'
p86
S'-30'
p87
S'-29'
p88
S'-28'
p89
S'-27'
p90
S'-26'
p91
S'-25'
p92
S'-24'
p93
S'-23'
p94
S'-22'
p95
S'-21'
p96
S'-20'
p97
S'-19'
p98
S'-18'
p99
S'-17'
p100
S'-16'
p101
S'-15'
p102
S'-14'
p103
S'-13'
p104
S'-12'
p105
S'-11'
p106
S'-10'
p107
S'-9'
p108
S'-8'
p109
S'-7'
p110
S'-6'
p111
S'-5'
p112
S'-4'
p113
S'-3'
p114
S'-2'
p115
S'-1'
p116
S'0'
p117
S'+1'
p118
S'+2'
p119
S'+3'
p120
S'+4'
p121
S'+5'
p122
S'+6'
p123
S'+7'
p124
S'+8'
p125
S'+9'
p126
S'+10'
p127
S'+11'
p128
S'+12'
p129
S'+13'
p130
S'+14'
p131
S'+15'
p132
S'+16'
p133
S'+17'
p134
S'+18'
p135
S'+19'
p136
S'+20'
p137
S'+21'
p138
S'+22'
p139
S'+23'
p140
S'+24'
p141
S'+25'
p142
S'+26'
p143
S'+27'
p144
S'+28'
p145
S'+29'
p146
S'+30'
p147
S'+31'
p148
S'+32'
p149
S'+33'
p150
S'+34'
p151
S'+35'
p152
S'+36'
p153
S'+37'
p154
S'+38'
p155
S'+39'
p156
S'+40'
p157
S'+41'
p158
S'+42'
p159
S'+43'
p160
S'+44'
p161
S'+45'
p162
S'+46'
p163
S'+47'
p164
S'+48'
p165
S'+49'
p166
S'+50'
p167
S'+51'
p168
S'+52'
p169
S'+53'
p170
S'+54'
p171
S'+55'
p172
S'+56'
p173
S'+57'
p174
S'+58'
p175
S'+59'
p176
S'+60'
p177
S'+61'
p178
S'+62'
p179
S'+63'
p180
tp181
aS'Osc 1 Detune'
p182
aS'Detune'
p183
aS'Osc 1'
p184
aS'Osc_1_Detune'
p185
aa(lp186
(I40
I88
I1
tp187
a(S'-24'
p188
S'-23'
p189
S'-22'
p190
S'-21'
p191
S'-20'
p192
S'-19'
p193
S'-18'
p194
S'-17'
p195
S'-16'
p196
S'-15'
p197
S'-14'
p198
S'-13'
p199
S'-12'
p200
S'-11'
p201
S'-10'
p202
S'-9'
p203
S'-8'
p204
S'-7'
p205
S'-6'
p206
S'-5'
p207
S'-4'
p208
S'-3'
p209
S'-2'
p210
S'-1'
p211
S'0'
p212
S'+1'
p213
S'+2'
p214
S'+3'
p215
S'+4'
p216
S'+5'
p217
S'+6'
p218
S'+7'
p219
S'+8'
p220
S'+9'
p221
S'+10'
p222
S'+11'
p223
S'+12'
p224
S'+13'
p225
S'+14'
p226
S'+15'
p227
S'+16'
p228
S'+17'
p229
S'+18'
p230
S'+19'
p231
S'+20'
p232
S'+21'
p233
S'+22'
p234
S'+23'
p235
S'+24'
p236
tp237
aS'Osc 1 Bend Range'
p238
aS'Bend Range'
p239
aS'Osc 1'
p240
aS'Osc_1_Bend_Range'
p241
aa(lp242
(I0
I127
I1
tp243
a(S'-200%'
p244
S'-197%'
p245
S'-194%'
p246
S'-191%'
p247
S'-188%'
p248
S'-184%'
p249
S'-181%'
p250
S'-178%'
p251
S'-175%'
p252
S'-172%'
p253
S'-169%'
p254
S'-166%'
p255
S'-163%'
p256
S'-160%'
p257
S'-156%'
p258
S'-153%'
p259
S'-150%'
p260
S'-147%'
p261
S'-144%'
p262
S'-141%'
p263
S'-138%'
p264
S'-135%'
p265
S'-132%'
p266
S'-128%'
p267
S'-125%'
p268
S'-122%'
p269
S'-119%'
p270
S'-116%'
p271
S'-113%'
p272
S'-110%'
p273
S'-107%'
p274
S'-104%'
p275
S'-100%'
p276
S'-97%'
p277
S'-94%'
p278
S'-91%'
p279
S'-88%'
p280
S'-85%'
p281
S'-82%'
p282
S'-79%'
p283
S'-76%'
p284
S'-72%'
p285
S'-69%'
p286
S'-66%'
p287
S'-63%'
p288
S'-60%'
p289
S'-57%'
p290
S'-54%'
p291
S'-51%'
p292
S'-48%'
p293
S'-44%'
p294
S'-41%'
p295
S'-38%'
p296
S'-35%'
p297
S'-32%'
p298
S'-29%'
p299
S'-26%'
p300
S'-23%'
p301
S'-20%'
p302
S'-16%'
p303
S'-13%'
p304
S'-10%'
p305
S'-7%'
p306
S'-4%'
p307
S'+-1%'
p308
S'+3%'
p309
S'+6%'
p310
S'+9%'
p311
S'+13%'
p312
S'+16%'
p313
S'+19%'
p314
S'+22%'
p315
S'+25%'
p316
S'+28%'
p317
S'+31%'
p318
S'+34%'
p319
S'+37%'
p320
S'+41%'
p321
S'+44%'
p322
S'+47%'
p323
S'+50%'
p324
S'+53%'
p325
S'+56%'
p326
S'+59%'
p327
S'+62%'
p328
S'+65%'
p329
S'+69%'
p330
S'+72%'
p331
S'+75%'
p332
S'+78%'
p333
S'+81%'
p334
S'+84%'
p335
S'+87%'
p336
S'+90%'
p337
S'+93%'
p338
S'+97%'
p339
S'+100%'
p340
S'+103%'
p341
S'+106%'
p342
S'+109%'
p343
S'+112%'
p344
S'+115%'
p345
S'+118%'
p346
S'+121%'
p347
S'+125%'
p348
S'+128%'
p349
S'+131%'
p350
S'+134%'
p351
S'+137%'
p352
S'+140%'
p353
S'+143%'
p354
S'+146%'
p355
S'+149%'
p356
S'+153%'
p357
S'+156%'
p358
S'+159%'
p359
S'+162%'
p360
S'+165%'
p361
S'+168%'
p362
S'+171%'
p363
S'+174%'
p364
S'+177%'
p365
S'+181%'
p366
S'+184%'
p367
S'+187%'
p368
S'+190%'
p369
S'+193%'
p370
S'+196%'
p371
tp372
aS'Osc 1 Keytrack'
p373
aS'Keytrack'
p374
aS'Osc 1'
p375
aS'Osc_1_Keytrack'
p376
aa(lp377
(I0
I11
I1
tp378
a(lp379
S'off'
p380
aS'Osc 1'
p381
aS'Osc 2'
p382
aS'Osc 3'
p383
aS'Noise'
p384
aS'LFO 1'
p385
aS'LFO 2'
p386
aS'LFO 3'
p387
aS'FilterEnv'
p388
aS'AmpEnv'
p389
aS'Env3'
p390
aS'Env4'
p391
aaS'Osc 1 FM Source'
p392
aS'FM Source'
p393
aS'Osc 1'
p394
aS'Osc_1_FM_Source'
p395
aa(lp396
(I0
I127
I1
tp397
a(S'0'
p398
S'1'
p399
S'2'
p400
S'3'
p401
S'4'
p402
S'5'
p403
S'6'
p404
S'7'
p405
S'8'
p406
S'9'
p407
S'10'
p408
S'11'
p409
S'12'
p410
S'13'
p411
S'14'
p412
S'15'
p413
S'16'
p414
S'17'
p415
S'18'
p416
S'19'
p417
S'20'
p418
S'21'
p419
S'22'
p420
S'23'
p421
S'24'
p422
S'25'
p423
S'26'
p424
S'27'
p425
S'28'
p426
S'29'
p427
S'30'
p428
S'31'
p429
S'32'
p430
S'33'
p431
S'34'
p432
S'35'
p433
S'36'
p434
S'37'
p435
S'38'
p436
S'39'
p437
S'40'
p438
S'41'
p439
S'42'
p440
S'43'
p441
S'44'
p442
S'45'
p443
S'46'
p444
S'47'
p445
S'48'
p446
S'49'
p447
S'50'
p448
S'51'
p449
S'52'
p450
S'53'
p451
S'54'
p452
S'55'
p453
S'56'
p454
S'57'
p455
S'58'
p456
S'59'
p457
S'60'
p458
S'61'
p459
S'62'
p460
S'63'
p461
S'64'
p462
S'65'
p463
S'66'
p464
S'67'
p465
S'68'
p466
S'69'
p467
S'70'
p468
S'71'
p469
S'72'
p470
S'73'
p471
S'74'
p472
S'75'
p473
S'76'
p474
S'77'
p475
S'78'
p476
S'79'
p477
S'80'
p478
S'81'
p479
S'82'
p480
S'83'
p481
S'84'
p482
S'85'
p483
S'86'
p484
S'87'
p485
S'88'
p486
S'89'
p487
S'90'
p488
S'91'
p489
S'92'
p490
S'93'
p491
S'94'
p492
S'95'
p493
S'96'
p494
S'97'
p495
S'98'
p496
S'99'
p497
S'100'
p498
S'101'
p499
S'102'
p500
S'103'
p501
S'104'
p502
S'105'
p503
S'106'
p504
S'107'
p505
S'108'
p506
S'109'
p507
S'110'
p508
S'111'
p509
S'112'
p510
S'113'
p511
S'114'
p512
S'115'
p513
S'116'
p514
S'117'
p515
S'118'
p516
S'119'
p517
S'120'
p518
S'121'
p519
S'122'
p520
S'123'
p521
S'124'
p522
S'125'
p523
S'126'
p524
S'127'
p525
tp526
aS'Osc 1 FM Amount'
p527
aS'FM Amount'
p528
aS'Osc 1'
p529
aS'Osc_1_FM_Amount'
p530
aa(lp531
(I0
I72
I1
tp532
a(lp533
S'off'
p534
aS'Pulse'
p535
aS'Saw'
p536
aS'Triangle'
p537
aS'Sine'
p538
aS'Alt 1'
p539
aS'Alt 2'
p540
aS'Resonant'
p541
aS'Resonant2'
p542
aS'MalletSyn'
p543
aS'Sqr-Sweep'
p544
aS'Bellish'
p545
aS'Pul-Sweep'
p546
aS'Saw-Sweep'
p547
aS'MellowSaw'
p548
aS'Feedback'
p549
aS'Add Harm'
p550
aS'Reso 3 HP'
p551
aS'Wind Syn'
p552
aS'High Harm'
p553
aS'Clipper'
p554
aS'Organ Syn'
p555
aS'SquareSaw'
p556
aS'Formant 1'
p557
aS'Polated'
p558
aS'Transient'
p559
aS'ElectricP'
p560
aS'Robotic'
p561
aS'StrongHrm'
p562
aS'PercOrgan'
p563
aS'ClipSweep'
p564
aS'ResoHarms'
p565
aS'2 Echoes'
p566
aS'Formant 2'
p567
aS'FmntVocal'
p568
aS'MicroSync'
p569
aS'Micro PWM'
p570
aS'Glassy'
p571
aS'Square HP'
p572
aS'SawSync 1'
p573
aS'SawSync 2'
p574
aS'SawSync 3'
p575
aS'PulSync 1'
p576
aS'PulSync 2'
p577
aS'PulSync 3'
p578
aS'SinSync 1'
p579
aS'SinSync 2'
p580
aS'SinSync 3'
p581
aS'PWM Pulse'
p582
aS'PWM Saw'
p583
aS'Fuzz Wave'
p584
aS'Distorted'
p585
aS'HeavyFuzz'
p586
aS'Fuzz Sync'
p587
aS'K+Strong1'
p588
aS'K+Strong2'
p589
aS'K+Strong3'
p590
aS'1-2-3-4-5'
p591
aS'19/twenty'
p592
aS'Wavetrip1'
p593
aS'Wavetrip2'
p594
aS'Wavetrip3'
p595
aS'Wavetrip4'
p596
aS'MaleVoice'
p597
aS'Low Piano'
p598
aS'ResoSweep'
p599
aS'Xmas Bell'
p600
aS'FM Piano'
p601
aS'Fat Organ'
p602
aS'Vibes'
p603
aS'Chorus 2'
p604
aS'True PWM'
p605
aS'UpperWaves'
p606
aaS'Osc 1 Shape'
p607
aS'Shape'
p608
aS'Osc 1'
p609
aS'Osc_1_Shape'
p610
aa(lp611
(I0
I127
I1
tp612
ag526
aS'Osc 1 Pulsewidth'
p613
aS'Pulsewidth'
p614
aS'Osc 1'
p615
aS'Osc_1_Pulsewidth'
p616
aa(lp617
(I0
I30
I1
tp618
a(lp619
S'off'
p620
aS'LFO 1'
p621
aS'LFO1*MW'
p622
aS'LFO 2'
p623
aS'LFO2*Press'
p624
aS'LFO 3'
p625
aS'FilterEnv'
p626
aS'AmpEnv'
p627
aS'Env3'
p628
aS'Env4'
p629
aS'Keytrack'
p630
aS'Velocity'
p631
aS'Rel. Velo'
p632
aS'Pressure'
p633
aS'Poly Press'
p634
aS'Pitch Bend'
p635
aS'Mod Wheel'
p636
aS'Sustain'
p637
aS'Foot Ctrl'
p638
aS'BreathCtrl'
p639
aS'Control W'
p640
aS'Control X'
p641
aS'Control Y'
p642
aS'Control Z'
p643
aS'Unisono V.'
p644
aS'Modifier 1'
p645
aS'Modifier 2'
p646
aS'Modifier 3'
p647
aS'Modifier 4'
p648
aS'minimum'
p649
aS'MAXIMUM'
p650
aaS'Osc 1 PWM Source'
p651
aS'PWM Source'
p652
aS'Osc 1'
p653
aS'Osc_1_PWM_Source'
p654
aa(lp655
(I0
I127
I1
tp656
ag181
aS'Osc 1 PWM Amount'
p657
aS'PWM Amount'
p658
aS'Osc 1'
p659
aS'Osc_1_PWM_Amount'
p660
aag2
ag2
a(lp661
(I0
I1
I1
tp662
a(S'on'
p663
S'off'
p664
tp665
aS'Osc 1 Limit WT'
p666
aS'Limit WT'
p667
aS'Osc 1'
p668
aS'Osc_1_Limit_WT'
p669
aag2
a(lp670
(I0
I127
I1
tp671
ag526
aS'Osc 1 Brilliance'
p672
aS'Brilliance'
p673
aS'Osc 1'
p674
aS'Osc_1_Brilliance'
p675
aa(lp676
(I16
I112
I12
tp677
ag14
aS'Osc 2 Octave'
p678
aS'Octave'
p679
aS'Osc 2'
p680
aS'Osc_2_Octave'
p681
aa(lp682
(I52
I76
I1
tp683
ag46
aS'Osc 2 Semitone'
p684
aS'Semitone'
p685
aS'Osc 2'
p686
aS'Osc_2_Semitone'
p687
aa(lp688
(I0
I127
I1
tp689
ag181
aS'Osc 2 Detune'
p690
aS'Detune'
p691
aS'Osc 2'
p692
aS'Osc_2_Detune'
p693
aa(lp694
(I40
I88
I1
tp695
ag237
aS'Osc 2 Bend Range'
p696
aS'Bend Range'
p697
aS'Osc 2'
p698
aS'Osc_2_Bend_Range'
p699
aa(lp700
(I0
I127
I1
tp701
ag372
aS'Osc 2 Keytrack'
p702
aS'Keytrack'
p703
aS'Osc 2'
p704
aS'Osc_2_Keytrack'
p705
aa(lp706
(I0
I11
I1
tp707
ag379
aS'Osc 2 FM Source'
p708
aS'FM Source'
p709
aS'Osc 2'
p710
aS'Osc_2_FM_Source'
p711
aa(lp712
(I0
I127
I1
tp713
ag526
aS'Osc 2 FM Amount'
p714
aS'FM Amount'
p715
aS'Osc 2'
p716
aS'Osc_2_FM_Amount'
p717
aa(lp718
(I0
I72
I1
tp719
ag533
aS'Osc 2 Shape'
p720
aS'Shape'
p721
aS'Osc 2'
p722
aS'Osc_2_Shape'
p723
aa(lp724
(I0
I127
I1
tp725
ag526
aS'Osc 2 Pulsewidth'
p726
aS'Pulsewidth'
p727
aS'Osc 2'
p728
aS'Osc_2_Pulsewidth'
p729
aa(lp730
(I0
I30
I1
tp731
ag619
aS'Osc 2 PWM Source'
p732
aS'PWM Source'
p733
aS'Osc 2'
p734
aS'Osc_2_PWM_Source'
p735
aa(lp736
(I0
I127
I1
tp737
ag181
aS'Osc 2 PWM Amount'
p738
aS'PWM Amount'
p739
aS'Osc 2'
p740
aS'Osc_2_PWM_Amount'
p741
aag2
ag2
a(lp742
(I0
I1
I1
tp743
ag665
aS'Osc 2 Limit WT'
p744
aS'Limit WT'
p745
aS'Osc 2'
p746
aS'Osc_2_Limit_WT'
p747
aag2
a(lp748
(I0
I127
I1
tp749
ag526
aS'Osc 2 Brilliance'
p750
aS'Brilliance'
p751
aS'Osc 2'
p752
aS'Osc_2_Brilliance'
p753
aa(lp754
(I16
I112
I12
tp755
ag14
aS'Osc 3 Octave'
p756
aS'Octave'
p757
aS'Osc 3'
p758
aS'Osc_3_Octave'
p759
aa(lp760
(I52
I76
I1
tp761
ag46
aS'Osc 3 Semitone'
p762
aS'Semitone'
p763
aS'Osc 3'
p764
aS'Osc_3_Semitone'
p765
aa(lp766
(I0
I127
I1
tp767
ag181
aS'Osc 3 Detune'
p768
aS'Detune'
p769
aS'Osc 3'
p770
aS'Osc_3_Detune'
p771
aa(lp772
(I40
I88
I1
tp773
ag237
aS'Osc 3 Bend Range'
p774
aS'Bend Range'
p775
aS'Osc 3'
p776
aS'Osc_3_Bend_Range'
p777
aa(lp778
(I0
I127
I1
tp779
ag372
aS'Osc 3 Keytrack'
p780
aS'Keytrack'
p781
aS'Osc 3'
p782
aS'Osc_3_Keytrack'
p783
aa(lp784
(I0
I11
I1
tp785
ag379
aS'Osc 3 FM Source'
p786
aS'FM Source'
p787
aS'Osc 3'
p788
aS'Osc_3_FM_Source'
p789
aa(lp790
(I0
I127
I1
tp791
ag526
aS'Osc 3 FM Amount'
p792
aS'FM Amount'
p793
aS'Osc 3'
p794
aS'Osc_3_FM_Amount'
p795
aa(lp796
(I0
I4
I1
tp797
a(lp798
g534
ag535
ag536
ag537
ag538
aaS'Osc 3 Shape'
p799
aS'Shape'
p800
aS'Osc 3'
p801
aS'Osc_3_Shape'
p802
aa(lp803
(I0
I127
I1
tp804
ag526
aS'Osc 3 Pulsewidth'
p805
aS'Pulsewidth'
p806
aS'Osc 3'
p807
aS'Osc_3_Pulsewidth'
p808
aa(lp809
(I0
I30
I1
tp810
ag619
aS'Osc 3 PWM Source'
p811
aS'PWM Source'
p812
aS'Osc 3'
p813
aS'Osc_3_PWM_Source'
p814
aa(lp815
(I0
I127
I1
tp816
ag181
aS'Osc 3 PWM Amount'
p817
aS'PWM Amount'
p818
aS'Osc 3'
p819
aS'Osc_3_PWM_Amount'
p820
aag2
ag2
ag2
ag2
a(lp821
(I0
I127
I1
tp822
ag526
aS'Osc 3 Brilliance'
p823
aS'Brilliance'
p824
aS'Osc 3'
p825
aS'Osc_3_Brilliance'
p826
aa(lp827
(I0
I1
I1
tp828
a(g664
g663
tp829
aS'Osc 2 Sync to O3'
p830
aS'Sync to O3'
p831
aS'Osc 2'
p832
aS'Osc_2_Sync_to_O3'
p833
aa(lp834
(I0
I30
I1
tp835
ag619
aS'Osc Pitch Source'
p836
aS'Source'
p837
aS'Osc Pitch'
p838
aS'Osc_Pitch_Source'
p839
aa(lp840
(I0
I127
I1
tp841
ag181
aS'Osc Pitch Amount'
p842
aS'Amount'
p843
aS'Osc Pitch'
p844
aS'Osc_Pitch_Amount'
p845
aag2
a(lp846
(I0
I1
I1
tp847
ag829
aS'Glide'
p848
ag848
aS''
p849
ag848
aag2
ag2
a(lp850
(I0
I3
I1
tp851
a(lp852
S'Portamento'
p853
aS'fingered P'
p854
aS'Glissando'
p855
aS'fingered G'
p856
aaS'Glide Mode'
p857
aS'Mode'
p858
aS'Glide'
p859
aS'Glide_Mode'
p860
aa(lp861
(I0
I127
I1
tp862
ag526
aS'Glide Rate'
p863
aS'Rate'
p864
aS'Glide'
p865
aS'Glide_Rate'
p866
aa(lp867
(I0
I127
I1
tp868
ag526
aS'Allocation Mode and Unisono'
p869
ag869
ag849
aS'Allocation_Mode_and_Unisono'
p870
aa(lp871
(I0
I127
I1
tp872
ag526
aS'Unisono Uni Detune'
p873
ag873
ag849
aS'Unisono_Uni_Detune'
p874
aag2
a(lp875
(I0
I127
I1
tp876
ag526
aS'Mixer Osc 1 Level'
p877
aS'Level'
p878
aS'Mixer Osc 1'
p879
aS'Mixer_Osc_1_Level'
p880
aa(lp881
(I0
I127
I1
tp882
a(S'F1 64'
p883
S'F1 63'
p884
S'F1 62'
p885
S'F1 61'
p886
S'F1 60'
p887
S'F1 59'
p888
S'F1 58'
p889
S'F1 57'
p890
S'F1 56'
p891
S'F1 55'
p892
S'F1 54'
p893
S'F1 53'
p894
S'F1 52'
p895
S'F1 51'
p896
S'F1 50'
p897
S'F1 49'
p898
S'F1 48'
p899
S'F1 47'
p900
S'F1 46'
p901
S'F1 45'
p902
S'F1 44'
p903
S'F1 43'
p904
S'F1 42'
p905
S'F1 41'
p906
S'F1 40'
p907
S'F1 39'
p908
S'F1 38'
p909
S'F1 37'
p910
S'F1 36'
p911
S'F1 35'
p912
S'F1 34'
p913
S'F1 33'
p914
S'F1 32'
p915
S'F1 31'
p916
S'F1 30'
p917
S'F1 29'
p918
S'F1 28'
p919
S'F1 27'
p920
S'F1 26'
p921
S'F1 25'
p922
S'F1 24'
p923
S'F1 23'
p924
S'F1 22'
p925
S'F1 21'
p926
S'F1 20'
p927
S'F1 19'
p928
S'F1 18'
p929
S'F1 17'
p930
S'F1 16'
p931
S'F1 15'
p932
S'F1 14'
p933
S'F1 13'
p934
S'F1 12'
p935
S'F1 11'
p936
S'F1 10'
p937
S'F1 9'
p938
S'F1 8'
p939
S'F1 7'
p940
S'F1 6'
p941
S'F1 5'
p942
S'F1 4'
p943
S'F1 3'
p944
S'F1 2'
p945
S'F1 1'
p946
S'middle'
p947
S'F2 1'
p948
S'F2 2'
p949
S'F2 3'
p950
S'F2 4'
p951
S'F2 5'
p952
S'F2 6'
p953
S'F2 7'
p954
S'F2 8'
p955
S'F2 9'
p956
S'F2 10'
p957
S'F2 11'
p958
S'F2 12'
p959
S'F2 13'
p960
S'F2 14'
p961
S'F2 15'
p962
S'F2 16'
p963
S'F2 17'
p964
S'F2 18'
p965
S'F2 19'
p966
S'F2 20'
p967
S'F2 21'
p968
S'F2 22'
p969
S'F2 23'
p970
S'F2 24'
p971
S'F2 25'
p972
S'F2 26'
p973
S'F2 27'
p974
S'F2 28'
p975
S'F2 29'
p976
S'F2 30'
p977
S'F2 31'
p978
S'F2 32'
p979
S'F2 33'
p980
S'F2 34'
p981
S'F2 35'
p982
S'F2 36'
p983
S'F2 37'
p984
S'F2 38'
p985
S'F2 39'
p986
S'F2 40'
p987
S'F2 41'
p988
S'F2 42'
p989
S'F2 43'
p990
S'F2 44'
p991
S'F2 45'
p992
S'F2 46'
p993
S'F2 47'
p994
S'F2 48'
p995
S'F2 49'
p996
S'F2 50'
p997
S'F2 51'
p998
S'F2 52'
p999
S'F2 53'
p1000
S'F2 54'
p1001
S'F2 55'
p1002
S'F2 56'
p1003
S'F2 57'
p1004
S'F2 58'
p1005
S'F2 59'
p1006
S'F2 60'
p1007
S'F2 61'
p1008
S'F2 62'
p1009
S'F2 63'
p1010
tp1011
aS'Mixer Osc 1 Balance'
p1012
aS'Balance'
p1013
aS'Mixer Osc 1'
p1014
aS'Mixer_Osc_1_Balance'
p1015
aa(lp1016
(I0
I127
I1
tp1017
ag526
aS'Mixer Osc 2 Level'
p1018
aS'Level'
p1019
aS'Mixer Osc 2'
p1020
aS'Mixer_Osc_2_Level'
p1021
aa(lp1022
(I0
I127
I1
tp1023
ag1011
aS'Mixer Osc 2 Balance'
p1024
aS'Balance'
p1025
aS'Mixer Osc 2'
p1026
aS'Mixer_Osc_2_Balance'
p1027
aa(lp1028
(I0
I127
I1
tp1029
ag526
aS'Mixer Osc 3 Level'
p1030
aS'Level'
p1031
aS'Mixer Osc 3'
p1032
aS'Mixer_Osc_3_Level'
p1033
aa(lp1034
(I0
I127
I1
tp1035
ag1011
aS'Mixer Osc 3 Balance'
p1036
aS'Balance'
p1037
aS'Mixer Osc 3'
p1038
aS'Mixer_Osc_3_Balance'
p1039
aa(lp1040
(I0
I127
I1
tp1041
ag526
aS'Mixer Noise Level'
p1042
aS'Level'
p1043
aS'Mixer Noise'
p1044
aS'Mixer_Noise_Level'
p1045
aa(lp1046
(I0
I127
I1
tp1047
ag1011
aS'Mixer Noise Balance'
p1048
aS'Balance'
p1049
aS'Mixer Noise'
p1050
aS'Mixer_Noise_Balance'
p1051
aa(lp1052
(I0
I127
I1
tp1053
ag181
aS'Mixer Noise Colour'
p1054
aS'Colour'
p1055
aS'Mixer Noise'
p1056
aS'Mixer_Noise_Colour'
p1057
aag2
a(lp1058
(I0
I127
I1
tp1059
ag526
aS'Mixer RingMod Level'
p1060
aS'Level'
p1061
aS'Mixer RingMod'
p1062
aS'Mixer_RingMod_Level'
p1063
aa(lp1064
(I0
I127
I1
tp1065
ag1011
aS'Mixer RingMod Balance'
p1066
aS'Balance'
p1067
aS'Mixer RingMod'
p1068
aS'Mixer_RingMod_Balance'
p1069
aag2
ag2
ag2
ag2
a(lp1070
(I0
I11
I1
tp1071
a(lp1072
S'Bypass'
p1073
aS'LP 24dB'
p1074
aS'LP 12dB'
p1075
aS'BP 24dB'
p1076
aS'BP 12dB'
p1077
aS'HP 24dB'
p1078
aS'HP 12dB'
p1079
aS'Notch24dB'
p1080
aS'Notch12dB'
p1081
aS'Comb+'
p1082
aS'Comb-'
p1083
aS'PPG LP'
p1084
aaS'Filter 1 Type'
p1085
aS'Type'
p1086
aS'Filter 1'
p1087
aS'Filter_1_Type'
p1088
aa(lp1089
(I0
I127
I1
tp1090
ag526
aS'Filter 1 Cutoff'
p1091
aS'Cutoff'
p1092
aS'Filter 1'
p1093
aS'Filter_1_Cutoff'
p1094
aag2
a(lp1095
(I0
I127
I1
tp1096
ag526
aS'Filter 1 Resonance'
p1097
aS'Resonance'
p1098
aS'Filter 1'
p1099
aS'Filter_1_Resonance'
p1100
aa(lp1101
(I0
I127
I1
tp1102
ag526
aS'Filter 1 Drive'
p1103
aS'Drive'
p1104
aS'Filter 1'
p1105
aS'Filter_1_Drive'
p1106
aa(lp1107
(I0
I12
I1
tp1108
a(lp1109
S'Clipping'
p1110
aS'Tube'
p1111
aS'Hard'
p1112
aS'Medium'
p1113
aS'Soft'
p1114
aS'Pickup 1'
p1115
aS'Pickup 2'
p1116
aS'Rectifier'
p1117
aS'Square'
p1118
aS'Binary'
p1119
aS'Overflow'
p1120
aS'Sine Shaper'
p1121
aS'Osc 1 Mod'
p1122
aaS'Filter 1 Drive Curve'
p1123
aS'Drive Curve'
p1124
aS'Filter 1'
p1125
aS'Filter_1_Drive_Curve'
p1126
aag2
ag2
ag2
a(lp1127
(I0
I127
I1
tp1128
ag372
aS'Filter 1 Keytrack'
p1129
aS'Keytrack'
p1130
aS'Filter 1'
p1131
aS'Filter_1_Keytrack'
p1132
aa(lp1133
(I0
I127
I1
tp1134
ag181
aS'Filter 1 Env Amount'
p1135
aS'Env Amount'
p1136
aS'Filter 1'
p1137
aS'Filter_1_Env_Amount'
p1138
aa(lp1139
(I0
I127
I1
tp1140
ag181
aS'Filter 1 Env Velocity'
p1141
aS'Env Velocity'
p1142
aS'Filter 1'
p1143
aS'Filter_1_Env_Velocity'
p1144
aa(lp1145
(I0
I30
I1
tp1146
ag619
aS'Filter 1 Mod Source'
p1147
aS'Mod Source'
p1148
aS'Filter 1'
p1149
aS'Filter_1_Mod_Source'
p1150
aa(lp1151
(I0
I127
I1
tp1152
ag181
aS'Filter 1 Mod Amount'
p1153
aS'Mod Amount'
p1154
aS'Filter 1'
p1155
aS'Filter_1_Mod_Amount'
p1156
aa(lp1157
(I0
I11
I1
tp1158
ag379
aS'Filter 1 FM Source'
p1159
aS'FM Source'
p1160
aS'Filter 1'
p1161
aS'Filter_1_FM_Source'
p1162
aa(lp1163
(I0
I127
I1
tp1164
a(g664
g399
g400
g401
g402
g403
g404
g405
g406
g407
g408
g409
g410
g411
g412
g413
g414
g415
g416
g417
g418
g419
g420
g421
g422
g423
g424
g425
g426
g427
g428
g429
g430
g431
g432
g433
g434
g435
g436
g437
g438
g439
g440
g441
g442
g443
g444
g445
g446
g447
g448
g449
g450
g451
g452
g453
g454
g455
g456
g457
g458
g459
g460
g461
g462
g463
g464
g465
g466
g467
g468
g469
g470
g471
g472
g473
g474
g475
g476
g477
g478
g479
g480
g481
g482
g483
g484
g485
g486
g487
g488
g489
g490
g491
g492
g493
g494
g495
g496
g497
g498
g499
g500
g501
g502
g503
g504
g505
g506
g507
g508
g509
g510
g511
g512
g513
g514
g515
g516
g517
g518
g519
g520
g521
g522
g523
g524
g525
tp1165
aS'Filter 1 FM Amount'
p1166
aS'FM Amount'
p1167
aS'Filter 1'
p1168
aS'Filter_1_FM_Amount'
p1169
aa(lp1170
(I0
I127
I1
tp1171
a(S'left 64'
p1172
S'left 63'
p1173
S'left 62'
p1174
S'left 61'
p1175
S'left 60'
p1176
S'left 59'
p1177
S'left 58'
p1178
S'left 57'
p1179
S'left 56'
p1180
S'left 55'
p1181
S'left 54'
p1182
S'left 53'
p1183
S'left 52'
p1184
S'left 51'
p1185
S'left 50'
p1186
S'left 49'
p1187
S'left 48'
p1188
S'left 47'
p1189
S'left 46'
p1190
S'left 45'
p1191
S'left 44'
p1192
S'left 43'
p1193
S'left 42'
p1194
S'left 41'
p1195
S'left 40'
p1196
S'left 39'
p1197
S'left 38'
p1198
S'left 37'
p1199
S'left 36'
p1200
S'left 35'
p1201
S'left 34'
p1202
S'left 33'
p1203
S'left 32'
p1204
S'left 31'
p1205
S'left 30'
p1206
S'left 29'
p1207
S'left 28'
p1208
S'left 27'
p1209
S'left 26'
p1210
S'left 25'
p1211
S'left 24'
p1212
S'left 23'
p1213
S'left 22'
p1214
S'left 21'
p1215
S'left 20'
p1216
S'left 19'
p1217
S'left 18'
p1218
S'left 17'
p1219
S'left 16'
p1220
S'left 15'
p1221
S'left 14'
p1222
S'left 13'
p1223
S'left 12'
p1224
S'left 11'
p1225
S'left 10'
p1226
S'left 9'
p1227
S'left 8'
p1228
S'left 7'
p1229
S'left 6'
p1230
S'left 5'
p1231
S'left 4'
p1232
S'left 3'
p1233
S'left 2'
p1234
S'left 1'
p1235
S'center'
p1236
S'right 1'
p1237
S'right 2'
p1238
S'right 3'
p1239
S'right 4'
p1240
S'right 5'
p1241
S'right 6'
p1242
S'right 7'
p1243
S'right 8'
p1244
S'right 9'
p1245
S'right 10'
p1246
S'right 11'
p1247
S'right 12'
p1248
S'right 13'
p1249
S'right 14'
p1250
S'right 15'
p1251
S'right 16'
p1252
S'right 17'
p1253
S'right 18'
p1254
S'right 19'
p1255
S'right 20'
p1256
S'right 21'
p1257
S'right 22'
p1258
S'right 23'
p1259
S'right 24'
p1260
S'right 25'
p1261
S'right 26'
p1262
S'right 27'
p1263
S'right 28'
p1264
S'right 29'
p1265
S'right 30'
p1266
S'right 31'
p1267
S'right 32'
p1268
S'right 33'
p1269
S'right 34'
p1270
S'right 35'
p1271
S'right 36'
p1272
S'right 37'
p1273
S'right 38'
p1274
S'right 39'
p1275
S'right 40'
p1276
S'right 41'
p1277
S'right 42'
p1278
S'right 43'
p1279
S'right 44'
p1280
S'right 45'
p1281
S'right 46'
p1282
S'right 47'
p1283
S'right 48'
p1284
S'right 49'
p1285
S'right 50'
p1286
S'right 51'
p1287
S'right 52'
p1288
S'right 53'
p1289
S'right 54'
p1290
S'right 55'
p1291
S'right 56'
p1292
S'right 57'
p1293
S'right 58'
p1294
S'right 59'
p1295
S'right 60'
p1296
S'right 61'
p1297
S'right 62'
p1298
S'right 63'
p1299
tp1300
aS'Filter 1 Pan'
p1301
aS'Pan'
p1302
aS'Filter 1'
p1303
aS'Filter_1_Pan'
p1304
aa(lp1305
(I0
I30
I1
tp1306
ag619
aS'Filter 1 Pan Source'
p1307
aS'Pan Source'
p1308
aS'Filter 1'
p1309
aS'Filter_1_Pan_Source'
p1310
aa(lp1311
(I0
I127
I1
tp1312
ag181
aS'Filter 1 Pan Amount'
p1313
aS'Pan Amount'
p1314
aS'Filter 1'
p1315
aS'Filter_1_Pan_Amount'
p1316
aag2
a(lp1317
(I0
I11
I1
tp1318
ag1072
aS'Filter 2 Type'
p1319
aS'Type'
p1320
aS'Filter 2'
p1321
aS'Filter_2_Type'
p1322
aa(lp1323
(I0
I127
I1
tp1324
ag526
aS'Filter 2 Cutoff'
p1325
aS'Cutoff'
p1326
aS'Filter 2'
p1327
aS'Filter_2_Cutoff'
p1328
aag2
a(lp1329
(I0
I127
I1
tp1330
ag526
aS'Filter 2 Resonance'
p1331
aS'Resonance'
p1332
aS'Filter 2'
p1333
aS'Filter_2_Resonance'
p1334
aa(lp1335
(I0
I127
I1
tp1336
ag526
aS'Filter 2 Drive'
p1337
aS'Drive'
p1338
aS'Filter 2'
p1339
aS'Filter_2_Drive'
p1340
aa(lp1341
(I0
I12
I1
tp1342
ag1109
aS'Filter 2 Drive Curve'
p1343
aS'Drive Curve'
p1344
aS'Filter 2'
p1345
aS'Filter_2_Drive_Curve'
p1346
aag2
ag2
ag2
a(lp1347
(I0
I127
I1
tp1348
ag372
aS'Filter 2 Keytrack'
p1349
aS'Keytrack'
p1350
aS'Filter 2'
p1351
aS'Filter_2_Keytrack'
p1352
aa(lp1353
(I0
I127
I1
tp1354
ag181
aS'Filter 2 Env Amount'
p1355
aS'Env Amount'
p1356
aS'Filter 2'
p1357
aS'Filter_2_Env_Amount'
p1358
aa(lp1359
(I0
I127
I1
tp1360
ag181
aS'Filter 2 Env Velocity'
p1361
aS'Env Velocity'
p1362
aS'Filter 2'
p1363
aS'Filter_2_Env_Velocity'
p1364
aa(lp1365
(I0
I30
I1
tp1366
ag619
aS'Filter 2 Mod Source'
p1367
aS'Mod Source'
p1368
aS'Filter 2'
p1369
aS'Filter_2_Mod_Source'
p1370
aa(lp1371
(I0
I127
I1
tp1372
ag181
aS'Filter 2 Mod Amount'
p1373
aS'Mod Amount'
p1374
aS'Filter 2'
p1375
aS'Filter_2_Mod_Amount'
p1376
aa(lp1377
(I0
I11
I1
tp1378
ag379
aS'Filter 2 FM Source'
p1379
aS'FM Source'
p1380
aS'Filter 2'
p1381
aS'Filter_2_FM_Source'
p1382
aa(lp1383
(I0
I127
I1
tp1384
ag1165
aS'Filter 2 FM Amount'
p1385
aS'FM Amount'
p1386
aS'Filter 2'
p1387
aS'Filter_2_FM_Amount'
p1388
aa(lp1389
(I0
I127
I1
tp1390
ag1300
aS'Filter 2 Pan'
p1391
aS'Pan'
p1392
aS'Filter 2'
p1393
aS'Filter_2_Pan'
p1394
aa(lp1395
(I0
I30
I1
tp1396
ag619
aS'Filter 2 Pan Source'
p1397
aS'Pan Source'
p1398
aS'Filter 2'
p1399
aS'Filter_2_Pan_Source'
p1400
aa(lp1401
(I0
I127
I1
tp1402
ag181
aS'Filter 2 Pan Amount'
p1403
aS'Pan Amount'
p1404
aS'Filter 2'
p1405
aS'Filter_2_Pan_Amount'
p1406
aag2
a(lp1407
(I0
I1
I1
tp1408
a(S'parallel'
p1409
S'serial'
p1410
tp1411
aS'Filter Routing'
p1412
aS'Routing'
p1413
aS'Filter'
p1414
aS'Filter_Routing'
p1415
aag2
ag2
ag2
a(lp1416
(I0
I127
I1
tp1417
ag526
aS'Amplifier Volume'
p1418
aS'Volume'
p1419
aS'Amplifier'
p1420
aS'Amplifier_Volume'
p1421
aa(lp1422
(I0
I127
I1
tp1423
ag181
aS'Amplifier Velocity'
p1424
aS'Velocity'
p1425
aS'Amplifier'
p1426
aS'Amplifier_Velocity'
p1427
aa(lp1428
(I0
I30
I1
tp1429
ag619
aS'Amplifier Mod Source'
p1430
aS'Source'
p1431
aS'Amplifier Mod'
p1432
aS'Amplifier_Mod_Source'
p1433
aa(lp1434
(I0
I127
I1
tp1435
ag181
aS'Amplifier Mod Amount'
p1436
aS'Amount'
p1437
aS'Amplifier Mod'
p1438
aS'Amplifier_Mod_Amount'
p1439
aag2
ag2
ag2
a(lp1440
(I0
I5
I1
tp1441
a(lp1442
S'Bypass'
p1443
aS'Chorus'
p1444
aS'Flanger'
p1445
aS'Phaser'
p1446
aS'Overdrive'
p1447
aS'Triple FX'
p1448
aaS'Effect 1 Type'
p1449
aS'Type'
p1450
aS'Effect 1'
p1451
aS'Effect_1_Type'
p1452
aa(lp1453
(I0
I127
I1
tp1454
ag526
aS'Effect 1 Mix'
p1455
aS'Mix'
p1456
aS'Effect 1'
p1457
aS'Effect_1_Mix'
p1458
aa(lp1459
(I0
I127
I1
tp1460
ag526
aS'Effect 1 Parameter 1'
p1461
aS'Parameter 1'
p1462
aS'Effect 1'
p1463
aS'Effect_1_Parameter_1'
p1464
aa(lp1465
(I0
I127
I1
tp1466
ag526
aS'Effect 1 Parameter 2'
p1467
aS'Parameter 2'
p1468
aS'Effect 1'
p1469
aS'Effect_1_Parameter_2'
p1470
aa(lp1471
(I0
I127
I1
tp1472
ag526
aS'Effect 1 Parameter 3'
p1473
aS'Parameter 3'
p1474
aS'Effect 1'
p1475
aS'Effect_1_Parameter_3'
p1476
aa(lp1477
(I0
I127
I1
tp1478
ag526
aS'Effect 1 Parameter 4'
p1479
aS'Parameter 4'
p1480
aS'Effect 1'
p1481
aS'Effect_1_Parameter_4'
p1482
aa(lp1483
(I0
I127
I1
tp1484
ag526
aS'Effect 1 Parameter 5'
p1485
aS'Parameter 5'
p1486
aS'Effect 1'
p1487
aS'Effect_1_Parameter_5'
p1488
aa(lp1489
(I0
I127
I1
tp1490
ag526
aS'Effect 1 Parameter 6'
p1491
aS'Parameter 6'
p1492
aS'Effect 1'
p1493
aS'Effect_1_Parameter_6'
p1494
aa(lp1495
(I0
I127
I1
tp1496
ag526
aS'Effect 1 Parameter 7'
p1497
aS'Parameter 7'
p1498
aS'Effect 1'
p1499
aS'Effect_1_Parameter_7'
p1500
aa(lp1501
(I0
I127
I1
tp1502
ag526
aS'Effect 1 Parameter 8'
p1503
aS'Parameter 8'
p1504
aS'Effect 1'
p1505
aS'Effect_1_Parameter_8'
p1506
aa(lp1507
(I0
I127
I1
tp1508
ag526
aS'Effect 1 Parameter 9'
p1509
aS'Parameter 9'
p1510
aS'Effect 1'
p1511
aS'Effect_1_Parameter_9'
p1512
aa(lp1513
(I0
I127
I1
tp1514
ag526
aS'Effect 1 Parameter 10'
p1515
aS'Parameter 10'
p1516
aS'Effect 1'
p1517
aS'Effect_1_Parameter_10'
p1518
aa(lp1519
(I0
I127
I1
tp1520
ag526
aS'Effect 1 Parameter 11'
p1521
aS'Parameter 11'
p1522
aS'Effect 1'
p1523
aS'Effect_1_Parameter_11'
p1524
aa(lp1525
(I0
I127
I1
tp1526
ag526
aS'Effect 1 Parameter 12'
p1527
aS'Parameter 12'
p1528
aS'Effect 1'
p1529
aS'Effect_1_Parameter_12'
p1530
aa(lp1531
(I0
I127
I1
tp1532
ag526
aS'Effect 1 Parameter 13'
p1533
aS'Parameter 13'
p1534
aS'Effect 1'
p1535
aS'Effect_1_Parameter_13'
p1536
aa(lp1537
(I0
I127
I1
tp1538
ag526
aS'Effect 1 Parameter 14'
p1539
aS'Parameter 14'
p1540
aS'Effect 1'
p1541
aS'Effect_1_Parameter_14'
p1542
aa(lp1543
(I0
I8
I1
tp1544
a(lp1545
g1443
ag1444
ag1445
ag1446
ag1447
ag1448
aS'Delay'
p1546
aS'Clk.Delay'
p1547
aS'Reverb'
p1548
aaS'Effect 2 Type'
p1549
aS'Type'
p1550
aS'Effect 2'
p1551
aS'Effect_2_Type'
p1552
aa(lp1553
(I0
I127
I1
tp1554
ag526
aS'Effect 2 Mix'
p1555
aS'Mix'
p1556
aS'Effect 2'
p1557
aS'Effect_2_Mix'
p1558
aa(lp1559
(I0
I127
I1
tp1560
ag526
aS'Effect 2 Parameter 1'
p1561
aS'Parameter 1'
p1562
aS'Effect 2'
p1563
aS'Effect_2_Parameter_1'
p1564
aa(lp1565
(I0
I127
I1
tp1566
ag526
aS'Effect 2 Parameter 2'
p1567
aS'Parameter 2'
p1568
aS'Effect 2'
p1569
aS'Effect_2_Parameter_2'
p1570
aa(lp1571
(I0
I127
I1
tp1572
ag526
aS'Effect 2 Parameter 3'
p1573
aS'Parameter 3'
p1574
aS'Effect 2'
p1575
aS'Effect_2_Parameter_3'
p1576
aa(lp1577
(I0
I127
I1
tp1578
ag526
aS'Effect 2 Parameter 4'
p1579
aS'Parameter 4'
p1580
aS'Effect 2'
p1581
aS'Effect_2_Parameter_4'
p1582
aa(lp1583
(I0
I127
I1
tp1584
ag526
aS'Effect 2 Parameter 5'
p1585
aS'Parameter 5'
p1586
aS'Effect 2'
p1587
aS'Effect_2_Parameter_5'
p1588
aa(lp1589
(I0
I127
I1
tp1590
ag526
aS'Effect 2 Parameter 6'
p1591
aS'Parameter 6'
p1592
aS'Effect 2'
p1593
aS'Effect_2_Parameter_6'
p1594
aa(lp1595
(I0
I127
I1
tp1596
ag526
aS'Effect 2 Parameter 7'
p1597
aS'Parameter 7'
p1598
aS'Effect 2'
p1599
aS'Effect_2_Parameter_7'
p1600
aa(lp1601
(I0
I127
I1
tp1602
ag526
aS'Effect 2 Parameter 8'
p1603
aS'Parameter 8'
p1604
aS'Effect 2'
p1605
aS'Effect_2_Parameter_8'
p1606
aa(lp1607
(I0
I127
I1
tp1608
ag526
aS'Effect 2 Parameter 9'
p1609
aS'Parameter 9'
p1610
aS'Effect 2'
p1611
aS'Effect_2_Parameter_9'
p1612
aa(lp1613
(I0
I127
I1
tp1614
ag526
aS'Effect 2 Parameter 10'
p1615
aS'Parameter 10'
p1616
aS'Effect 2'
p1617
aS'Effect_2_Parameter_10'
p1618
aa(lp1619
(I0
I127
I1
tp1620
ag526
aS'Effect 2 Parameter 11'
p1621
aS'Parameter 11'
p1622
aS'Effect 2'
p1623
aS'Effect_2_Parameter_11'
p1624
aa(lp1625
(I0
I127
I1
tp1626
ag526
aS'Effect 2 Parameter 12'
p1627
aS'Parameter 12'
p1628
aS'Effect 2'
p1629
aS'Effect_2_Parameter_12'
p1630
aa(lp1631
(I0
I127
I1
tp1632
ag526
aS'Effect 2 Parameter 13'
p1633
aS'Parameter 13'
p1634
aS'Effect 2'
p1635
aS'Effect_2_Parameter_13'
p1636
aa(lp1637
(I0
I127
I1
tp1638
ag526
aS'Effect 2 Parameter 14'
p1639
aS'Parameter 14'
p1640
aS'Effect 2'
p1641
aS'Effect_2_Parameter_14'
p1642
aa(lp1643
(I0
I5
I1
tp1644
a(lp1645
S'Sine'
p1646
aS'Triangle'
p1647
aS'Square'
p1648
aS'Saw'
p1649
aS'Random'
p1650
aS'S&H'
p1651
aaS'LFO 1 Shape'
p1652
aS'Shape'
p1653
aS'LFO 1'
p1654
aS'LFO_1_Shape'
p1655
aa(lp1656
(I0
I127
I1
tp1657
a(lp1658
S'1280 bars'
p1659
aS'1280 bars'
p1660
aS'1152 bars'
p1661
aS'1152 bars'
p1662
aS'1024 bars'
p1663
aS'1024 bars'
p1664
aS'896 bars'
p1665
aS'896 bars'
p1666
aS'768 bars'
p1667
aS'768 bars'
p1668
aS'640 bars'
p1669
aS'640 bars'
p1670
aS'576 bars'
p1671
aS'576 bars'
p1672
aS'512 bars'
p1673
aS'512 bars'
p1674
aS'448 bars'
p1675
aS'448 bars'
p1676
aS'384 bars'
p1677
aS'384 bars'
p1678
aS'320 bars'
p1679
aS'320 bars'
p1680
aS'288 bars'
p1681
aS'288 bars'
p1682
aS'256 bars'
p1683
aS'256 bars'
p1684
aS'224 bars'
p1685
aS'224 bars'
p1686
aS'192 bars'
p1687
aS'192 bars'
p1688
aS'160 bars'
p1689
aS'160 bars'
p1690
aS'144 bars'
p1691
aS'144 bars'
p1692
aS'128 bars'
p1693
aS'128 bars'
p1694
aS'112 bars'
p1695
aS'112 bars'
p1696
aS'96 bars'
p1697
aS'96 bars'
p1698
aS'80 bars'
p1699
aS'80 bars'
p1700
aS'72 bars'
p1701
aS'72 bars'
p1702
aS'64 bars'
p1703
aS'64 bars'
p1704
aS'56 bars'
p1705
aS'56 bars'
p1706
aS'48 bars'
p1707
aS'48 bars'
p1708
aS'40 bars'
p1709
aS'40 bars'
p1710
aS'36 bars'
p1711
aS'36 bars'
p1712
aS'32 bars'
p1713
aS'32 bars'
p1714
aS'28 bars'
p1715
aS'28 bars'
p1716
aS'24 bars'
p1717
aS'24 bars'
p1718
aS'20 bars'
p1719
aS'20 bars'
p1720
aS'18 bars'
p1721
aS'18 bars'
p1722
aS'16 bars'
p1723
aS'16 bars'
p1724
aS'14 bars'
p1725
aS'14 bars'
p1726
aS'12 bars'
p1727
aS'12 bars'
p1728
aS'10 bars'
p1729
aS'10 bars'
p1730
aS'9 bars'
p1731
aS'9 bars'
p1732
aS'8 bars'
p1733
aS'8 bars'
p1734
aS'7 bars'
p1735
aS'7 bars'
p1736
aS'6 bars'
p1737
aS'6 bars'
p1738
aS'5 bars'
p1739
aS'5 bars'
p1740
aS'4 bars'
p1741
aS'4 bars'
p1742
aS'3.5 bars'
p1743
aS'3.5 bars'
p1744
aS'3 bars'
p1745
aS'3 bars'
p1746
aS'2.5 bars'
p1747
aS'2.5 bars'
p1748
aS'2 bars'
p1749
aS'2 bars'
p1750
aS'1.5 bars'
p1751
aS'1.5 bars'
p1752
aS'1 bar'
p1753
aS'1 bar'
p1754
aS'1/2.'
p1755
aS'1/2.'
p1756
aS'1/1T'
p1757
aS'1/1T'
p1758
aS'1/2 '
p1759
aS'1/2 '
p1760
aS'1/4.'
p1761
aS'1/4.'
p1762
aS'1/2T'
p1763
aS'1/2T'
p1764
aS'1/4 '
p1765
aS'1/4 '
p1766
aS'1/8.'
p1767
aS'1/8.'
p1768
aS'1/4T'
p1769
aS'1/4T'
p1770
aS'1/8 '
p1771
aS'1/8 '
p1772
aS'1/16.'
p1773
aS'1/16.'
p1774
aS'1/8T'
p1775
aS'1/8T'
p1776
aS'1/16 '
p1777
aS'1/16 '
p1778
aS'1/32.'
p1779
aS'1/32.'
p1780
aS'1/16T'
p1781
aS'1/16T'
p1782
aS'1/32 '
p1783
aS'1/32 '
p1784
aS'1/48'
p1785
aS'1/48'
p1786
aaS'LFO 1 Speed'
p1787
aS'Speed'
p1788
aS'LFO 1'
p1789
aS'LFO_1_Speed'
p1790
aag2
a(lp1791
(I0
I1
I1
tp1792
ag829
aS'LFO 1 Sync'
p1793
aS'Sync'
p1794
aS'LFO 1'
p1795
aS'LFO_1_Sync'
p1796
aa(lp1797
(I0
I1
I1
tp1798
ag829
aS'LFO 1 Clocked'
p1799
aS'Clocked'
p1800
aS'LFO 1'
p1801
aS'LFO_1_Clocked'
p1802
aa(lp1803
(I0
I127
I1
tp1804
a(S'free'
p1805
S'0\xc2\xb0'
p1806
S'3\xc2\xb0'
p1807
S'6\xc2\xb0'
p1808
S'8\xc2\xb0'
p1809
S'11\xc2\xb0'
p1810
S'14\xc2\xb0'
p1811
S'17\xc2\xb0'
p1812
S'20\xc2\xb0'
p1813
S'22\xc2\xb0'
p1814
S'25\xc2\xb0'
p1815
S'28\xc2\xb0'
p1816
S'31\xc2\xb0'
p1817
S'34\xc2\xb0'
p1818
S'36\xc2\xb0'
p1819
S'39\xc2\xb0'
p1820
S'42\xc2\xb0'
p1821
S'45\xc2\xb0'
p1822
S'48\xc2\xb0'
p1823
S'50\xc2\xb0'
p1824
S'53\xc2\xb0'
p1825
S'56\xc2\xb0'
p1826
S'59\xc2\xb0'
p1827
S'62\xc2\xb0'
p1828
S'64\xc2\xb0'
p1829
S'67\xc2\xb0'
p1830
S'70\xc2\xb0'
p1831
S'73\xc2\xb0'
p1832
S'76\xc2\xb0'
p1833
S'78\xc2\xb0'
p1834
S'81\xc2\xb0'
p1835
S'84\xc2\xb0'
p1836
S'87\xc2\xb0'
p1837
S'90\xc2\xb0'
p1838
S'92\xc2\xb0'
p1839
S'95\xc2\xb0'
p1840
S'98\xc2\xb0'
p1841
S'101\xc2\xb0'
p1842
S'104\xc2\xb0'
p1843
S'106\xc2\xb0'
p1844
S'109\xc2\xb0'
p1845
S'112\xc2\xb0'
p1846
S'115\xc2\xb0'
p1847
S'118\xc2\xb0'
p1848
S'120\xc2\xb0'
p1849
S'123\xc2\xb0'
p1850
S'126\xc2\xb0'
p1851
S'129\xc2\xb0'
p1852
S'132\xc2\xb0'
p1853
S'134\xc2\xb0'
p1854
S'137\xc2\xb0'
p1855
S'140\xc2\xb0'
p1856
S'143\xc2\xb0'
p1857
S'146\xc2\xb0'
p1858
S'148\xc2\xb0'
p1859
S'151\xc2\xb0'
p1860
S'154\xc2\xb0'
p1861
S'157\xc2\xb0'
p1862
S'160\xc2\xb0'
p1863
S'162\xc2\xb0'
p1864
S'165\xc2\xb0'
p1865
S'168\xc2\xb0'
p1866
S'171\xc2\xb0'
p1867
S'174\xc2\xb0'
p1868
S'176\xc2\xb0'
p1869
S'179\xc2\xb0'
p1870
S'182\xc2\xb0'
p1871
S'185\xc2\xb0'
p1872
S'188\xc2\xb0'
p1873
S'190\xc2\xb0'
p1874
S'193\xc2\xb0'
p1875
S'196\xc2\xb0'
p1876
S'199\xc2\xb0'
p1877
S'202\xc2\xb0'
p1878
S'204\xc2\xb0'
p1879
S'207\xc2\xb0'
p1880
S'210\xc2\xb0'
p1881
S'213\xc2\xb0'
p1882
S'216\xc2\xb0'
p1883
S'218\xc2\xb0'
p1884
S'221\xc2\xb0'
p1885
S'224\xc2\xb0'
p1886
S'227\xc2\xb0'
p1887
S'230\xc2\xb0'
p1888
S'232\xc2\xb0'
p1889
S'235\xc2\xb0'
p1890
S'238\xc2\xb0'
p1891
S'241\xc2\xb0'
p1892
S'244\xc2\xb0'
p1893
S'246\xc2\xb0'
p1894
S'249\xc2\xb0'
p1895
S'252\xc2\xb0'
p1896
S'255\xc2\xb0'
p1897
S'258\xc2\xb0'
p1898
S'260\xc2\xb0'
p1899
S'263\xc2\xb0'
p1900
S'266\xc2\xb0'
p1901
S'269\xc2\xb0'
p1902
S'272\xc2\xb0'
p1903
S'274\xc2\xb0'
p1904
S'277\xc2\xb0'
p1905
S'280\xc2\xb0'
p1906
S'283\xc2\xb0'
p1907
S'286\xc2\xb0'
p1908
S'288\xc2\xb0'
p1909
S'291\xc2\xb0'
p1910
S'294\xc2\xb0'
p1911
S'297\xc2\xb0'
p1912
S'300\xc2\xb0'
p1913
S'302\xc2\xb0'
p1914
S'305\xc2\xb0'
p1915
S'308\xc2\xb0'
p1916
S'311\xc2\xb0'
p1917
S'314\xc2\xb0'
p1918
S'316\xc2\xb0'
p1919
S'319\xc2\xb0'
p1920
S'322\xc2\xb0'
p1921
S'325\xc2\xb0'
p1922
S'328\xc2\xb0'
p1923
S'330\xc2\xb0'
p1924
S'333\xc2\xb0'
p1925
S'336\xc2\xb0'
p1926
S'339\xc2\xb0'
p1927
S'342\xc2\xb0'
p1928
S'344\xc2\xb0'
p1929
S'347\xc2\xb0'
p1930
S'350\xc2\xb0'
p1931
S'353\xc2\xb0'
p1932
tp1933
aS'LFO 1 Start Phase'
p1934
aS'Start Phase'
p1935
aS'LFO 1'
p1936
aS'LFO_1_Start_Phase'
p1937
aa(lp1938
(I0
I127
I1
tp1939
ag526
aS'LFO 1 Delay'
p1940
aS'Delay'
p1941
aS'LFO 1'
p1942
aS'LFO_1_Delay'
p1943
aa(lp1944
(I0
I127
I1
tp1945
ag181
aS'LFO 1 Fade'
p1946
aS'Fade'
p1947
aS'LFO 1'
p1948
aS'LFO_1_Fade'
p1949
aag2
ag2
a(lp1950
(I0
I127
I1
tp1951
ag372
aS'LFO 1 Keytrack'
p1952
aS'Keytrack'
p1953
aS'LFO 1'
p1954
aS'LFO_1_Keytrack'
p1955
aag2
a(lp1956
(I0
I5
I1
tp1957
ag1645
aS'LFO 2 Shape'
p1958
aS'Shape'
p1959
aS'LFO 2'
p1960
aS'LFO_2_Shape'
p1961
aa(lp1962
(I0
I127
I1
tp1963
ag1658
aS'LFO 2 Speed'
p1964
aS'Speed'
p1965
aS'LFO 2'
p1966
aS'LFO_2_Speed'
p1967
aag2
a(lp1968
(I0
I1
I1
tp1969
ag829
aS'LFO 2 Sync'
p1970
aS'Sync'
p1971
aS'LFO 2'
p1972
aS'LFO_2_Sync'
p1973
aa(lp1974
(I0
I1
I1
tp1975
ag829
aS'LFO 2 Clocked'
p1976
aS'Clocked'
p1977
aS'LFO 2'
p1978
aS'LFO_2_Clocked'
p1979
aa(lp1980
(I0
I127
I1
tp1981
ag1933
aS'LFO 2 Start Phase'
p1982
aS'Start Phase'
p1983
aS'LFO 2'
p1984
aS'LFO_2_Start_Phase'
p1985
aa(lp1986
(I0
I127
I1
tp1987
ag526
aS'LFO 2 Delay'
p1988
aS'Delay'
p1989
aS'LFO 2'
p1990
aS'LFO_2_Delay'
p1991
aa(lp1992
(I0
I127
I1
tp1993
ag181
aS'LFO 2 Fade'
p1994
aS'Fade'
p1995
aS'LFO 2'
p1996
aS'LFO_2_Fade'
p1997
aag2
ag2
a(lp1998
(I0
I127
I1
tp1999
ag372
aS'LFO 2 Keytrack'
p2000
aS'Keytrack'
p2001
aS'LFO 2'
p2002
aS'LFO_2_Keytrack'
p2003
aag2
a(lp2004
(I0
I5
I1
tp2005
ag1645
aS'LFO 3 Shape'
p2006
aS'Shape'
p2007
aS'LFO 3'
p2008
aS'LFO_3_Shape'
p2009
aa(lp2010
(I0
I127
I1
tp2011
ag1658
aS'LFO 3 Speed'
p2012
aS'Speed'
p2013
aS'LFO 3'
p2014
aS'LFO_3_Speed'
p2015
aag2
a(lp2016
(I0
I1
I1
tp2017
ag829
aS'LFO 3 Sync'
p2018
aS'Sync'
p2019
aS'LFO 3'
p2020
aS'LFO_3_Sync'
p2021
aa(lp2022
(I0
I1
I1
tp2023
ag829
aS'LFO 3 Clocked'
p2024
aS'Clocked'
p2025
aS'LFO 3'
p2026
aS'LFO_3_Clocked'
p2027
aa(lp2028
(I0
I127
I1
tp2029
ag1933
aS'LFO 3 Start Phase'
p2030
aS'Start Phase'
p2031
aS'LFO 3'
p2032
aS'LFO_3_Start_Phase'
p2033
aa(lp2034
(I0
I127
I1
tp2035
ag526
aS'LFO 3 Delay'
p2036
aS'Delay'
p2037
aS'LFO 3'
p2038
aS'LFO_3_Delay'
p2039
aa(lp2040
(I0
I127
I1
tp2041
ag181
aS'LFO 3 Fade'
p2042
aS'Fade'
p2043
aS'LFO 3'
p2044
aS'LFO_3_Fade'
p2045
aag2
ag2
a(lp2046
(I0
I127
I1
tp2047
ag372
aS'LFO 3 Keytrack'
p2048
aS'Keytrack'
p2049
aS'LFO 3'
p2050
aS'LFO_3_Keytrack'
p2051
aag2
a(lp2052
(I0
I4
I1
tp2053
ag372
aS'Filter Envelope Mode'
p2054
aS'Mode'
p2055
aS'Filter Envelope'
p2056
aS'Filter_Envelope_Mode'
p2057
aag2
ag2
a(lp2058
(I0
I127
I1
tp2059
ag526
aS'Filter Envelope Attack'
p2060
aS'Attack'
p2061
aS'Filter Envelope'
p2062
aS'Filter_Envelope_Attack'
p2063
aa(lp2064
(I0
I127
I1
tp2065
ag526
aS'Filter Envelope Attack Level'
p2066
aS'Attack Level'
p2067
aS'Filter Envelope'
p2068
aS'Filter_Envelope_Attack_Level'
p2069
aa(lp2070
(I0
I127
I1
tp2071
ag526
aS'Filter Envelope Decay'
p2072
aS'Decay'
p2073
aS'Filter Envelope'
p2074
aS'Filter_Envelope_Decay'
p2075
aa(lp2076
(I0
I127
I1
tp2077
ag526
aS'Filter Envelope Sustain'
p2078
aS'Sustain'
p2079
aS'Filter Envelope'
p2080
aS'Filter_Envelope_Sustain'
p2081
aa(lp2082
(I0
I127
I1
tp2083
ag526
aS'Filter Envelope Decay 2'
p2084
aS'Decay 2'
p2085
aS'Filter Envelope'
p2086
aS'Filter_Envelope_Decay_2'
p2087
aa(lp2088
(I0
I127
I1
tp2089
ag526
aS'Filter Envelope Sustain 2'
p2090
aS'Sustain 2'
p2091
aS'Filter Envelope'
p2092
aS'Filter_Envelope_Sustain_2'
p2093
aa(lp2094
(I0
I127
I1
tp2095
ag526
aS'Filter Envelope Release'
p2096
aS'Release'
p2097
aS'Filter Envelope'
p2098
aS'Filter_Envelope_Release'
p2099
aag2
ag2
a(lp2100
(I0
I4
I1
tp2101
ag526
aS'Amplifier Envelope Mode'
p2102
aS'Mode'
p2103
aS'Amplifier Envelope'
p2104
aS'Amplifier_Envelope_Mode'
p2105
aag2
ag2
a(lp2106
(I0
I127
I1
tp2107
ag526
aS'Amplifier Envelope Attack'
p2108
aS'Attack'
p2109
aS'Amplifier Envelope'
p2110
aS'Amplifier_Envelope_Attack'
p2111
aa(lp2112
(I0
I127
I1
tp2113
ag526
aS'Amplifier Envelope Attack Level'
p2114
aS'Attack Level'
p2115
aS'Amplifier Envelope'
p2116
aS'Amplifier_Envelope_Attack_Level'
p2117
aa(lp2118
(I0
I127
I1
tp2119
ag526
aS'Amplifier Envelope Decay'
p2120
aS'Decay'
p2121
aS'Amplifier Envelope'
p2122
aS'Amplifier_Envelope_Decay'
p2123
aa(lp2124
(I0
I127
I1
tp2125
ag526
aS'Amplifier Envelope Sustain'
p2126
aS'Sustain'
p2127
aS'Amplifier Envelope'
p2128
aS'Amplifier_Envelope_Sustain'
p2129
aa(lp2130
(I0
I127
I1
tp2131
ag526
aS'Amplifier Envelope Decay 2'
p2132
aS'Decay 2'
p2133
aS'Amplifier Envelope'
p2134
aS'Amplifier_Envelope_Decay_2'
p2135
aa(lp2136
(I0
I127
I1
tp2137
ag526
aS'Amplifier Envelope Sustain 2'
p2138
aS'Sustain 2'
p2139
aS'Amplifier Envelope'
p2140
aS'Amplifier_Envelope_Sustain_2'
p2141
aa(lp2142
(I0
I127
I1
tp2143
ag526
aS'Amplifier Envelope Release'
p2144
aS'Release'
p2145
aS'Amplifier Envelope'
p2146
aS'Amplifier_Envelope_Release'
p2147
aag2
ag2
a(lp2148
(I0
I4
I1
tp2149
ag526
aS'Envelope 3 Mode'
p2150
aS'Mode'
p2151
aS'Envelope 3'
p2152
aS'Envelope_3_Mode'
p2153
aag2
ag2
a(lp2154
(I0
I127
I1
tp2155
ag526
aS'Envelope 3 Attack'
p2156
aS'Attack'
p2157
aS'Envelope 3'
p2158
aS'Envelope_3_Attack'
p2159
aa(lp2160
(I0
I127
I1
tp2161
ag526
aS'Envelope 3 Attack Level'
p2162
aS'Attack Level'
p2163
aS'Envelope 3'
p2164
aS'Envelope_3_Attack_Level'
p2165
aa(lp2166
(I0
I127
I1
tp2167
ag526
aS'Envelope 3 Decay'
p2168
aS'Decay'
p2169
aS'Envelope 3'
p2170
aS'Envelope_3_Decay'
p2171
aa(lp2172
(I0
I127
I1
tp2173
ag526
aS'Envelope 3 Sustain'
p2174
aS'Sustain'
p2175
aS'Envelope 3'
p2176
aS'Envelope_3_Sustain'
p2177
aa(lp2178
(I0
I127
I1
tp2179
ag526
aS'Envelope 3 Decay 2'
p2180
aS'Decay 2'
p2181
aS'Envelope 3'
p2182
aS'Envelope_3_Decay_2'
p2183
aa(lp2184
(I0
I127
I1
tp2185
ag526
aS'Envelope 3 Sustain 2'
p2186
aS'Sustain 2'
p2187
aS'Envelope 3'
p2188
aS'Envelope_3_Sustain_2'
p2189
aa(lp2190
(I0
I127
I1
tp2191
ag526
aS'Envelope 3 Release'
p2192
aS'Release'
p2193
aS'Envelope 3'
p2194
aS'Envelope_3_Release'
p2195
aag2
ag2
a(lp2196
(I0
I4
I1
tp2197
ag526
aS'Envelope 4 Mode'
p2198
aS'Mode'
p2199
aS'Envelope 4'
p2200
aS'Envelope_4_Mode'
p2201
aag2
ag2
a(lp2202
(I0
I127
I1
tp2203
ag526
aS'Envelope 4 Attack'
p2204
aS'Attack'
p2205
aS'Envelope 4'
p2206
aS'Envelope_4_Attack'
p2207
aa(lp2208
(I0
I127
I1
tp2209
ag526
aS'Envelope 4 Attack Level'
p2210
aS'Attack Level'
p2211
aS'Envelope 4'
p2212
aS'Envelope_4_Attack_Level'
p2213
aa(lp2214
(I0
I127
I1
tp2215
ag526
aS'Envelope 4 Decay'
p2216
aS'Decay'
p2217
aS'Envelope 4'
p2218
aS'Envelope_4_Decay'
p2219
aa(lp2220
(I0
I127
I1
tp2221
ag526
aS'Envelope 4 Sustain'
p2222
aS'Sustain'
p2223
aS'Envelope 4'
p2224
aS'Envelope_4_Sustain'
p2225
aa(lp2226
(I0
I127
I1
tp2227
ag526
aS'Envelope 4 Decay 2'
p2228
aS'Decay 2'
p2229
aS'Envelope 4'
p2230
aS'Envelope_4_Decay_2'
p2231
aa(lp2232
(I0
I127
I1
tp2233
ag526
aS'Envelope 4 Sustain 2'
p2234
aS'Sustain 2'
p2235
aS'Envelope 4'
p2236
aS'Envelope_4_Sustain_2'
p2237
aa(lp2238
(I0
I127
I1
tp2239
ag526
aS'Envelope 4 Release'
p2240
aS'Release'
p2241
aS'Envelope 4'
p2242
aS'Envelope_4_Release'
p2243
aag2
ag2
ag2
a(lp2244
(I0
I30
I1
tp2245
ag619
aS'Modifier 1 Source A'
p2246
aS'Source A'
p2247
aS'Modifier 1'
p2248
aS'Modifier_1_Source_A'
p2249
aa(lp2250
(I0
I30
I1
tp2251
ag619
aS'Modifier 1 Source B'
p2252
aS'Source B'
p2253
aS'Modifier 1'
p2254
aS'Modifier_1_Source_B'
p2255
aa(lp2256
(I0
I7
I1
tp2257
a(lp2258
S'+'
p2259
aS'-'
p2260
aS'*'
p2261
aS'AND'
p2262
aS'OR'
p2263
aS'XOR'
p2264
aS'MAX'
p2265
aS'min'
p2266
aaS'Modifier 1 Operation'
p2267
aS'Operation'
p2268
aS'Modifier 1'
p2269
aS'Modifier_1_Operation'
p2270
aa(lp2271
(I0
I127
I1
tp2272
ag181
aS'Modifier 1 Constant'
p2273
aS'Constant'
p2274
aS'Modifier 1'
p2275
aS'Modifier_1_Constant'
p2276
aa(lp2277
(I0
I30
I1
tp2278
ag619
aS'Modifier 2 Source A'
p2279
aS'Source A'
p2280
aS'Modifier 2'
p2281
aS'Modifier_2_Source_A'
p2282
aa(lp2283
(I0
I30
I1
tp2284
ag619
aS'Modifier 2 Source B'
p2285
aS'Source B'
p2286
aS'Modifier 2'
p2287
aS'Modifier_2_Source_B'
p2288
aa(lp2289
(I0
I7
I1
tp2290
ag2258
aS'Modifier 2 Operation'
p2291
aS'Operation'
p2292
aS'Modifier 2'
p2293
aS'Modifier_2_Operation'
p2294
aa(lp2295
(I0
I127
I1
tp2296
ag181
aS'Modifier 2 Constant'
p2297
aS'Constant'
p2298
aS'Modifier 2'
p2299
aS'Modifier_2_Constant'
p2300
aa(lp2301
(I0
I30
I1
tp2302
ag619
aS'Modifier 3 Source A'
p2303
aS'Source A'
p2304
aS'Modifier 3'
p2305
aS'Modifier_3_Source_A'
p2306
aa(lp2307
(I0
I30
I1
tp2308
ag619
aS'Modifier 3 Source B'
p2309
aS'Source B'
p2310
aS'Modifier 3'
p2311
aS'Modifier_3_Source_B'
p2312
aa(lp2313
(I0
I7
I1
tp2314
ag2258
aS'Modifier 3 Operation'
p2315
aS'Operation'
p2316
aS'Modifier 3'
p2317
aS'Modifier_3_Operation'
p2318
aa(lp2319
(I0
I127
I1
tp2320
ag181
aS'Modifier 3 Constant'
p2321
aS'Constant'
p2322
aS'Modifier 3'
p2323
aS'Modifier_3_Constant'
p2324
aa(lp2325
(I0
I30
I1
tp2326
ag619
aS'Modifier 4 Source A'
p2327
aS'Source A'
p2328
aS'Modifier 4'
p2329
aS'Modifier_4_Source_A'
p2330
aa(lp2331
(I0
I30
I1
tp2332
ag619
aS'Modifier 4 Source B'
p2333
aS'Source B'
p2334
aS'Modifier 4'
p2335
aS'Modifier_4_Source_B'
p2336
aa(lp2337
(I0
I7
I1
tp2338
ag2258
aS'Modifier 4 Operation'
p2339
aS'Operation'
p2340
aS'Modifier 4'
p2341
aS'Modifier_4_Operation'
p2342
aa(lp2343
(I0
I127
I1
tp2344
ag181
aS'Modifier 4 Constant'
p2345
aS'Constant'
p2346
aS'Modifier 4'
p2347
aS'Modifier_4_Constant'
p2348
aa(lp2349
(I0
I30
I1
tp2350
ag619
aS'Modulation 1 Source'
p2351
ag2351
ag849
aS'Modulation_1_Source'
p2352
aa(lp2353
(I0
I53
I1
tp2354
a(lp2355
S'Pitch'
p2356
aS'O1 Pitch'
p2357
aS'O1 FM'
p2358
aS'O1 PW/Wave'
p2359
aS'O2 Pitch'
p2360
aS'O2 FM'
p2361
aS'O2 PW/Wave'
p2362
aS'O3 Pitch'
p2363
aS'O3 FM'
p2364
aS'O3 PW'
p2365
aS'O1 Level'
p2366
aS'O1 Balance'
p2367
aS'O2 Level'
p2368
aS'O2 Balance'
p2369
aS'O3 Level'
p2370
aS'O3 Balance'
p2371
aS'RMod Level'
p2372
aS'RMod Bal.'
p2373
aS'NoiseLevel'
p2374
aS'Noise Bal.'
p2375
aS'F1 Cutoff'
p2376
aS'F1 Reson.'
p2377
aS'F1 FM'
p2378
aS'F1 Drive'
p2379
aS'F1 Pan'
p2380
aS'F2 Cutoff'
p2381
aS'F2 Reson.'
p2382
aS'F2 FM'
p2383
aS'F2 Drive'
p2384
aS'F2 Pan'
p2385
aS'Volume'
p2386
aS'LFO1Speed'
p2387
aS'LFO2Speed'
p2388
aS'LFO3Speed'
p2389
aS'FE Attack'
p2390
aS'FE Decay'
p2391
aS'FE Sustain'
p2392
aS'FE Release'
p2393
aS'AE Attack'
p2394
aS'AE Decay'
p2395
aS'AE Sustain'
p2396
aS'AE Release'
p2397
aS'E3 Attack'
p2398
aS'E3 Decay'
p2399
aS'E3 Sustain'
p2400
aS'E3 Release'
p2401
aS'E4 Attack'
p2402
aS'E4 Decay'
p2403
aS'E4 Sustain'
p2404
aS'E4 Release'
p2405
aS'M1 Amount'
p2406
aS'M2 Amount'
p2407
aS'M3 Amount'
p2408
aS'M4 Amount'
p2409
aaS'Modulation 1 Destination'
p2410
ag2410
ag849
aS'Modulation_1_Destination'
p2411
aa(lp2412
(I0
I127
I1
tp2413
ag181
aS'Modulation 1 Amount'
p2414
ag2414
ag849
aS'Modulation_1_Amount'
p2415
aa(lp2416
(I0
I30
I1
tp2417
ag619
aS'Modulation 2 Source'
p2418
ag2418
ag849
aS'Modulation_2_Source'
p2419
aa(lp2420
(I0
I53
I1
tp2421
ag2355
aS'Modulation 2 Destination'
p2422
ag2422
ag849
aS'Modulation_2_Destination'
p2423
aa(lp2424
(I0
I127
I1
tp2425
ag181
aS'Modulation 2 Amount'
p2426
ag2426
ag849
aS'Modulation_2_Amount'
p2427
aa(lp2428
(I0
I30
I1
tp2429
ag619
aS'Modulation 3 Source'
p2430
ag2430
ag849
aS'Modulation_3_Source'
p2431
aa(lp2432
(I0
I53
I1
tp2433
ag2355
aS'Modulation 3 Destination'
p2434
ag2434
ag849
aS'Modulation_3_Destination'
p2435
aa(lp2436
(I0
I127
I1
tp2437
ag181
aS'Modulation 3 Amount'
p2438
ag2438
ag849
aS'Modulation_3_Amount'
p2439
aa(lp2440
(I0
I30
I1
tp2441
ag619
aS'Modulation 4 Source'
p2442
ag2442
ag849
aS'Modulation_4_Source'
p2443
aa(lp2444
(I0
I53
I1
tp2445
ag2355
aS'Modulation 4 Destination'
p2446
ag2446
ag849
aS'Modulation_4_Destination'
p2447
aa(lp2448
(I0
I127
I1
tp2449
ag181
aS'Modulation 4 Amount'
p2450
ag2450
ag849
aS'Modulation_4_Amount'
p2451
aa(lp2452
(I0
I30
I1
tp2453
ag619
aS'Modulation 5 Source'
p2454
ag2454
ag849
aS'Modulation_5_Source'
p2455
aa(lp2456
(I0
I53
I1
tp2457
ag2355
aS'Modulation 5 Destination'
p2458
ag2458
ag849
aS'Modulation_5_Destination'
p2459
aa(lp2460
(I0
I127
I1
tp2461
ag181
aS'Modulation 5 Amount'
p2462
ag2462
ag849
aS'Modulation_5_Amount'
p2463
aa(lp2464
(I0
I30
I1
tp2465
ag619
aS'Modulation 6 Source'
p2466
ag2466
ag849
aS'Modulation_6_Source'
p2467
aa(lp2468
(I0
I53
I1
tp2469
ag2355
aS'Modulation 6 Destination'
p2470
ag2470
ag849
aS'Modulation_6_Destination'
p2471
aa(lp2472
(I0
I127
I1
tp2473
ag181
aS'Modulation 6 Amount'
p2474
ag2474
ag849
aS'Modulation_6_Amount'
p2475
aa(lp2476
(I0
I30
I1
tp2477
ag619
aS'Modulation 7 Source'
p2478
ag2478
ag849
aS'Modulation_7_Source'
p2479
aa(lp2480
(I0
I53
I1
tp2481
ag2355
aS'Modulation 7 Destination'
p2482
ag2482
ag849
aS'Modulation_7_Destination'
p2483
aa(lp2484
(I0
I127
I1
tp2485
ag181
aS'Modulation 7 Amount'
p2486
ag2486
ag849
aS'Modulation_7_Amount'
p2487
aa(lp2488
(I0
I30
I1
tp2489
ag619
aS'Modulation 8 Source'
p2490
ag2490
ag849
aS'Modulation_8_Source'
p2491
aa(lp2492
(I0
I53
I1
tp2493
ag2355
aS'Modulation 8 Destination'
p2494
ag2494
ag849
aS'Modulation_8_Destination'
p2495
aa(lp2496
(I0
I127
I1
tp2497
ag181
aS'Modulation 8 Amount'
p2498
ag2498
ag849
aS'Modulation_8_Amount'
p2499
aa(lp2500
(I0
I30
I1
tp2501
ag619
aS'Modulation 9 Source'
p2502
ag2502
ag849
aS'Modulation_9_Source'
p2503
aa(lp2504
(I0
I53
I1
tp2505
ag2355
aS'Modulation 9 Destination'
p2506
ag2506
ag849
aS'Modulation_9_Destination'
p2507
aa(lp2508
(I0
I127
I1
tp2509
ag181
aS'Modulation 9 Amount'
p2510
ag2510
ag849
aS'Modulation_9_Amount'
p2511
aa(lp2512
(I0
I30
I1
tp2513
ag619
aS'Modulation 10 Source'
p2514
ag2514
ag849
aS'Modulation_10_Source'
p2515
aa(lp2516
(I0
I53
I1
tp2517
ag2355
aS'Modulation 10 Destination'
p2518
ag2518
ag849
aS'Modulation_10_Destination'
p2519
aa(lp2520
(I0
I127
I1
tp2521
ag181
aS'Modulation 10 Amount'
p2522
ag2522
ag849
aS'Modulation_10_Amount'
p2523
aa(lp2524
(I0
I30
I1
tp2525
ag619
aS'Modulation 11 Source'
p2526
ag2526
ag849
aS'Modulation_11_Source'
p2527
aa(lp2528
(I0
I53
I1
tp2529
ag2355
aS'Modulation 11 Destination'
p2530
ag2530
ag849
aS'Modulation_11_Destination'
p2531
aa(lp2532
(I0
I127
I1
tp2533
ag181
aS'Modulation 11 Amount'
p2534
ag2534
ag849
aS'Modulation_11_Amount'
p2535
aa(lp2536
(I0
I30
I1
tp2537
ag619
aS'Modulation 12 Source'
p2538
ag2538
ag849
aS'Modulation_12_Source'
p2539
aa(lp2540
(I0
I53
I1
tp2541
ag2355
aS'Modulation 12 Destination'
p2542
ag2542
ag849
aS'Modulation_12_Destination'
p2543
aa(lp2544
(I0
I127
I1
tp2545
ag181
aS'Modulation 12 Amount'
p2546
ag2546
ag849
aS'Modulation_12_Amount'
p2547
aa(lp2548
(I0
I30
I1
tp2549
ag619
aS'Modulation 13 Source'
p2550
ag2550
ag849
aS'Modulation_13_Source'
p2551
aa(lp2552
(I0
I53
I1
tp2553
ag2355
aS'Modulation 13 Destination'
p2554
ag2554
ag849
aS'Modulation_13_Destination'
p2555
aa(lp2556
(I0
I127
I1
tp2557
ag181
aS'Modulation 13 Amount'
p2558
ag2558
ag849
aS'Modulation_13_Amount'
p2559
aa(lp2560
(I0
I30
I1
tp2561
ag619
aS'Modulation 14 Source'
p2562
ag2562
ag849
aS'Modulation_14_Source'
p2563
aa(lp2564
(I0
I53
I1
tp2565
ag2355
aS'Modulation 14 Destination'
p2566
ag2566
ag849
aS'Modulation_14_Destination'
p2567
aa(lp2568
(I0
I127
I1
tp2569
ag181
aS'Modulation 14 Amount'
p2570
ag2570
ag849
aS'Modulation_14_Amount'
p2571
aa(lp2572
(I0
I30
I1
tp2573
ag619
aS'Modulation 15 Source'
p2574
ag2574
ag849
aS'Modulation_15_Source'
p2575
aa(lp2576
(I0
I53
I1
tp2577
ag2355
aS'Modulation 15 Destination'
p2578
ag2578
ag849
aS'Modulation_15_Destination'
p2579
aa(lp2580
(I0
I127
I1
tp2581
ag181
aS'Modulation 15 Amount'
p2582
ag2582
ag849
aS'Modulation_15_Amount'
p2583
aa(lp2584
(I0
I30
I1
tp2585
ag619
aS'Modulation 16 Source'
p2586
ag2586
ag849
aS'Modulation_16_Source'
p2587
aa(lp2588
(I0
I53
I1
tp2589
ag2355
aS'Modulation 16 Destination'
p2590
ag2590
ag849
aS'Modulation_16_Destination'
p2591
aa(lp2592
(I0
I127
I1
tp2593
ag181
aS'Modulation 16 Amount'
p2594
ag2594
ag849
aS'Modulation_16_Amount'
p2595
aag2
ag2
a(lp2596
(I0
I3
I1
tp2597
a(g664
g663
S'One Shot'
p2598
S'Hold'
p2599
tp2600
aS'Arpeggiator Mode'
p2601
ag2601
ag849
aS'Arpeggiator_Mode'
p2602
aa(lp2603
(I0
I16
I1
tp2604
a(S'User'
p2605
g398
g399
g400
g401
g402
g403
g404
g405
g406
g407
S'10'
p2606
S'11'
p2607
S'12'
p2608
S'13'
p2609
S'14'
p2610
S'15'
p2611
tp2612
aS'Arpeggiator Pattern'
p2613
ag2613
ag849
aS'Arpeggiator_Pattern'
p2614
aag2
a(lp2615
(I0
I42
I1
tp2616
a(lp2617
S'1/96'
p2618
aS'1/48'
p2619
aS'1/32 '
p2620
aS'1/16T'
p2621
aS'1/32.'
p2622
aS'1/16 '
p2623
aS'1/8T'
p2624
aS'1/16.'
p2625
aS'1/8 '
p2626
aS'1/4T'
p2627
aS'1/8.'
p2628
aS'1/4 '
p2629
aS'1/2T'
p2630
aS'1/4.'
p2631
aS'1/2 '
p2632
aS'1/1T'
p2633
aS'1/2.'
p2634
aS'1 bar'
p2635
aS'1.5 bars'
p2636
aS'2 bars'
p2637
aS'2.5 bars'
p2638
aS'3 bars'
p2639
aS'3.5 bars'
p2640
aS'4 bars'
p2641
aS'5 bars'
p2642
aS'6 bars'
p2643
aS'7 bars'
p2644
aS'8 bars'
p2645
aS'9 bars'
p2646
aS'10 bars'
p2647
aS'12 bars'
p2648
aS'14 bars'
p2649
aS'16 bars'
p2650
aS'18 bars'
p2651
aS'20 bars'
p2652
aS'24 bars'
p2653
aS'28 bars'
p2654
aS'32 bars'
p2655
aS'36 bars'
p2656
aS'40 bars'
p2657
aS'48 bars'
p2658
aS'56 bars'
p2659
aS'64 bars'
p2660
aaS'Arpeggiator Clock'
p2661
ag2661
ag849
aS'Arpeggiator_Clock'
p2662
aa(lp2663
(I0
I43
I1
tp2664
a(S'1/96'
p2665
S'1/48'
p2666
S'1/32'
p2667
S'1/16T'
p2668
S'1/32.'
p2669
S'1/16'
p2670
S'1/8T'
p2671
S'1/16.'
p2672
S'1/8'
p2673
S'1/4T'
p2674
S'1/8.'
p2675
S'1/4'
p2676
S'1/2T'
p2677
S'1/4.'
p2678
S'1/2'
p2679
S'1/1T'
p2680
S'1/2.'
p2681
S'1 bar'
p2682
S'1.5 bars'
p2683
S'2 bars'
p2684
S'2.5 bars'
p2685
S'3 bars'
p2686
S'3.5 bars'
p2687
S'4 bars'
p2688
S'5 bars'
p2689
S'6 bars'
p2690
S'7 bars'
p2691
S'8 bars'
p2692
S'9 bars'
p2693
S'10 bars'
p2694
S'12 bars'
p2695
S'14 bars'
p2696
S'16 bars'
p2697
S'18 bars'
p2698
S'20 bars'
p2699
S'24 bars'
p2700
S'28 bars'
p2701
S'32 bars'
p2702
S'36 bars'
p2703
S'40 bars'
p2704
S'48 bars'
p2705
S'56 bars'
p2706
S'64 bars'
p2707
S'legato'
p2708
tp2709
aS'Arpeggiator Length'
p2710
ag2710
ag849
aS'Arpeggiator_Length'
p2711
aa(lp2712
(I0
I9
I1
tp2713
a(g399
g400
g401
g402
g403
g404
g405
g406
g407
S'10'
p2714
tp2715
aS'Arpeggiator Octave'
p2716
ag2716
ag849
aS'Arpeggiator_Octave'
p2717
aa(lp2718
(I0
I3
I1
tp2719
a(S'Up'
p2720
S'Down'
p2721
S'Alt Up'
p2722
S'Alt Down'
p2723
tp2724
aS'Arpeggiator Direction'
p2725
ag2725
ag849
aS'Arpeggiator_Direction'
p2726
aa(lp2727
(I0
I5
I1
tp2728
a(lp2729
S'as played'
p2730
aS'reversed'
p2731
aS'Key Lo>Hi'
p2732
aS'Key Hi>Lo'
p2733
aS'Vel Lo>Hi'
p2734
aS'Vel Hi>Lo'
p2735
aaS'Arpeggiator Sort Order'
p2736
ag2736
ag849
aS'Arpeggiator_Sort_Order'
p2737
aa(lp2738
(I0
I6
I1
tp2739
a(lp2740
S'Each Note'
p2741
aS'First Note'
p2742
aS'Last Note'
p2743
aS'fix 32'
p2744
aS'fix 64'
p2745
aS'fix 100'
p2746
aS'fix 127'
p2747
aaS'Arpeggiator Velocity'
p2748
ag2748
ag849
aS'Arpeggiator_Velocity'
p2749
aa(lp2750
(I0
I127
I1
tp2751
ag526
aS'Arpeggiator Timing Factor'
p2752
ag2752
ag849
aS'Arpeggiator_Timing_Factor'
p2753
aag2
a(lp2754
(I0
I1
I1
tp2755
ag829
aS'Arpeggiator Ptn Reset'
p2756
ag2756
ag849
aS'Arpeggiator_Ptn_Reset'
p2757
aa(lp2758
(I0
I15
I1
tp2759
a(g399
g400
g401
g402
g403
g404
g405
g406
g407
S'10'
p2760
S'11'
p2761
S'12'
p2762
S'13'
p2763
S'14'
p2764
S'15'
p2765
S'16'
p2766
tp2767
aS'Arpeggiator Ptn Length'
p2768
ag2768
ag849
aS'Arpeggiator_Ptn_Length'
p2769
aag2
ag2
a(lp2770
(I0
I127
I1
tp2771
a(S'40'
p2772
S'42'
p2773
S'44'
p2774
S'46'
p2775
S'48'
p2776
S'50'
p2777
S'52'
p2778
S'54'
p2779
S'56'
p2780
S'58'
p2781
S'60'
p2782
S'62'
p2783
S'64'
p2784
S'66'
p2785
S'68'
p2786
S'70'
p2787
S'72'
p2788
S'74'
p2789
S'76'
p2790
S'78'
p2791
S'80'
p2792
S'82'
p2793
S'84'
p2794
S'86'
p2795
S'88'
p2796
S'90'
p2797
S'91'
p2798
S'92'
p2799
S'93'
p2800
S'94'
p2801
S'95'
p2802
S'96'
p2803
S'97'
p2804
S'98'
p2805
S'99'
p2806
S'100'
p2807
S'101'
p2808
S'102'
p2809
S'103'
p2810
S'104'
p2811
S'105'
p2812
S'106'
p2813
S'107'
p2814
S'108'
p2815
S'109'
p2816
S'110'
p2817
S'111'
p2818
S'112'
p2819
S'113'
p2820
S'114'
p2821
S'115'
p2822
S'116'
p2823
S'117'
p2824
S'118'
p2825
S'119'
p2826
S'120'
p2827
S'121'
p2828
S'122'
p2829
S'123'
p2830
S'124'
p2831
S'125'
p2832
S'126'
p2833
S'127'
p2834
S'128'
p2835
S'129'
p2836
S'130'
p2837
S'131'
p2838
S'132'
p2839
S'133'
p2840
S'134'
p2841
S'135'
p2842
S'136'
p2843
S'137'
p2844
S'138'
p2845
S'139'
p2846
S'140'
p2847
S'141'
p2848
S'142'
p2849
S'143'
p2850
S'144'
p2851
S'145'
p2852
S'146'
p2853
S'147'
p2854
S'148'
p2855
S'149'
p2856
S'150'
p2857
S'151'
p2858
S'152'
p2859
S'153'
p2860
S'154'
p2861
S'155'
p2862
S'156'
p2863
S'157'
p2864
S'158'
p2865
S'159'
p2866
S'160'
p2867
S'161'
p2868
S'162'
p2869
S'163'
p2870
S'164'
p2871
S'165'
p2872
S'170'
p2873
S'175'
p2874
S'180'
p2875
S'185'
p2876
S'190'
p2877
S'195'
p2878
S'200'
p2879
S'205'
p2880
S'210'
p2881
S'215'
p2882
S'220'
p2883
S'225'
p2884
S'230'
p2885
S'235'
p2886
S'240'
p2887
S'245'
p2888
S'250'
p2889
S'255'
p2890
S'260'
p2891
S'265'
p2892
S'270'
p2893
S'275'
p2894
S'280'
p2895
S'285'
p2896
S'290'
p2897
S'295'
p2898
S'300'
p2899
tp2900
aS'Arpeggiator Tempo'
p2901
ag2901
ag849
aS'Arpeggiator_Tempo'
p2902
aa(lp2903
(I0
I127
I1
tp2904
ag2900
aS'Arp Pattern Step/Glide/Accent 1'
p2905
ag2905
ag849
aS'Arp_Pattern_Step_Glide_Accent_1'
p2906
aa(lp2907
(I0
I127
I1
tp2908
ag2900
aS'Arp Pattern Step/Glide/Accent 2'
p2909
ag2909
ag849
aS'Arp_Pattern_Step_Glide_Accent_2'
p2910
aa(lp2911
(I0
I127
I1
tp2912
ag2900
aS'Arp Pattern Step/Glide/Accent 3'
p2913
ag2913
ag849
aS'Arp_Pattern_Step_Glide_Accent_3'
p2914
aa(lp2915
(I0
I127
I1
tp2916
ag2900
aS'Arp Pattern Step/Glide/Accent 4'
p2917
ag2917
ag849
aS'Arp_Pattern_Step_Glide_Accent_4'
p2918
aa(lp2919
(I0
I127
I1
tp2920
ag2900
aS'Arp Pattern Step/Glide/Accent 5'
p2921
ag2921
ag849
aS'Arp_Pattern_Step_Glide_Accent_5'
p2922
aa(lp2923
(I0
I127
I1
tp2924
ag2900
aS'Arp Pattern Step/Glide/Accent 6'
p2925
ag2925
ag849
aS'Arp_Pattern_Step_Glide_Accent_6'
p2926
aa(lp2927
(I0
I127
I1
tp2928
ag2900
aS'Arp Pattern Step/Glide/Accent 7'
p2929
ag2929
ag849
aS'Arp_Pattern_Step_Glide_Accent_7'
p2930
aa(lp2931
(I0
I127
I1
tp2932
ag2900
aS'Arp Pattern Step/Glide/Accent 8'
p2933
ag2933
ag849
aS'Arp_Pattern_Step_Glide_Accent_8'
p2934
aa(lp2935
(I0
I127
I1
tp2936
ag2900
aS'Arp Pattern Step/Glide/Accent 9'
p2937
ag2937
ag849
aS'Arp_Pattern_Step_Glide_Accent_9'
p2938
aa(lp2939
(I0
I127
I1
tp2940
ag2900
aS'Arp Pattern Step/Glide/Accent 10'
p2941
ag2941
ag849
aS'Arp_Pattern_Step_Glide_Accent_10'
p2942
aa(lp2943
(I0
I127
I1
tp2944
ag2900
aS'Arp Pattern Step/Glide/Accent 11'
p2945
ag2945
ag849
aS'Arp_Pattern_Step_Glide_Accent_11'
p2946
aa(lp2947
(I0
I127
I1
tp2948
ag2900
aS'Arp Pattern Step/Glide/Accent 12'
p2949
ag2949
ag849
aS'Arp_Pattern_Step_Glide_Accent_12'
p2950
aa(lp2951
(I0
I127
I1
tp2952
ag2900
aS'Arp Pattern Step/Glide/Accent 13'
p2953
ag2953
ag849
aS'Arp_Pattern_Step_Glide_Accent_13'
p2954
aa(lp2955
(I0
I127
I1
tp2956
ag2900
aS'Arp Pattern Step/Glide/Accent 14'
p2957
ag2957
ag849
aS'Arp_Pattern_Step_Glide_Accent_14'
p2958
aa(lp2959
(I0
I127
I1
tp2960
ag2900
aS'Arp Pattern Step/Glide/Accent 15'
p2961
ag2961
ag849
aS'Arp_Pattern_Step_Glide_Accent_15'
p2962
aa(lp2963
(I0
I127
I1
tp2964
ag2900
aS'Arp Pattern Step/Glide/Accent 16'
p2965
ag2965
ag849
aS'Arp_Pattern_Step_Glide_Accent_16'
p2966
aa(lp2967
(I0
I127
I1
tp2968
ag2900
aS'Arp Pattern Timing/Length 1'
p2969
ag2969
ag849
aS'Arp_Pattern_Timing_Length_1'
p2970
aa(lp2971
(I0
I127
I1
tp2972
ag2900
aS'Arp Pattern Timing/Length 2'
p2973
ag2973
ag849
aS'Arp_Pattern_Timing_Length_2'
p2974
aa(lp2975
(I0
I127
I1
tp2976
ag2900
aS'Arp Pattern Timing/Length 3'
p2977
ag2977
ag849
aS'Arp_Pattern_Timing_Length_3'
p2978
aa(lp2979
(I0
I127
I1
tp2980
ag2900
aS'Arp Pattern Timing/Length 4'
p2981
ag2981
ag849
aS'Arp_Pattern_Timing_Length_4'
p2982
aa(lp2983
(I0
I127
I1
tp2984
ag2900
aS'Arp Pattern Timing/Length 5'
p2985
ag2985
ag849
aS'Arp_Pattern_Timing_Length_5'
p2986
aa(lp2987
(I0
I127
I1
tp2988
ag2900
aS'Arp Pattern Timing/Length 6'
p2989
ag2989
ag849
aS'Arp_Pattern_Timing_Length_6'
p2990
aa(lp2991
(I0
I127
I1
tp2992
ag2900
aS'Arp Pattern Timing/Length 7'
p2993
ag2993
ag849
aS'Arp_Pattern_Timing_Length_7'
p2994
aa(lp2995
(I0
I127
I1
tp2996
ag2900
aS'Arp Pattern Timing/Length 8'
p2997
ag2997
ag849
aS'Arp_Pattern_Timing_Length_8'
p2998
aa(lp2999
(I0
I127
I1
tp3000
ag2900
aS'Arp Pattern Timing/Length 9'
p3001
ag3001
ag849
aS'Arp_Pattern_Timing_Length_9'
p3002
aa(lp3003
(I0
I127
I1
tp3004
ag2900
aS'Arp Pattern Timing/Length 10'
p3005
ag3005
ag849
aS'Arp_Pattern_Timing_Length_10'
p3006
aa(lp3007
(I0
I127
I1
tp3008
ag2900
aS'Arp Pattern Timing/Length 11'
p3009
ag3009
ag849
aS'Arp_Pattern_Timing_Length_11'
p3010
aa(lp3011
(I0
I127
I1
tp3012
ag2900
aS'Arp Pattern Timing/Length 12'
p3013
ag3013
ag849
aS'Arp_Pattern_Timing_Length_12'
p3014
aa(lp3015
(I0
I127
I1
tp3016
ag2900
aS'Arp Pattern Timing/Length 13'
p3017
ag3017
ag849
aS'Arp_Pattern_Timing_Length_13'
p3018
aa(lp3019
(I0
I127
I1
tp3020
ag2900
aS'Arp Pattern Timing/Length 14'
p3021
ag3021
ag849
aS'Arp_Pattern_Timing_Length_14'
p3022
aa(lp3023
(I0
I127
I1
tp3024
ag2900
aS'Arp Pattern Timing/Length 15'
p3025
ag3025
ag849
aS'Arp_Pattern_Timing_Length_15'
p3026
aa(lp3027
(I0
I127
I1
tp3028
ag2900
aS'Arp Pattern Timing/Length 16'
p3029
ag3029
ag849
aS'Arp_Pattern_Timing_Length_16'
p3030
aag2
ag2
ag2
ag2
a(lp3031
(I32
I127
I1
tp3032
a(S' '
p3033
S'!'
p3034
S'"'
p3035
S'#'
p3036
S'$'
p3037
S'%'
p3038
S'&'
p3039
S"'"
p3040
S'('
p3041
S')'
p3042
S'*'
p3043
S'+'
p3044
S','
p3045
S'-'
p3046
S'.'
p3047
S'/'
p3048
S'0'
p3049
S'1'
p3050
S'2'
p3051
S'3'
p3052
S'4'
p3053
S'5'
p3054
S'6'
p3055
S'7'
p3056
S'8'
p3057
S'9'
p3058
S':'
p3059
S';'
p3060
S'<'
p3061
S'='
p3062
S'>'
p3063
S'?'
p3064
S'@'
p3065
S'A'
p3066
S'B'
p3067
S'C'
p3068
S'D'
p3069
S'E'
p3070
S'F'
p3071
S'G'
p3072
S'H'
p3073
S'I'
p3074
S'J'
p3075
S'K'
p3076
S'L'
p3077
S'M'
p3078
S'N'
p3079
S'O'
p3080
S'P'
p3081
S'Q'
p3082
S'R'
p3083
S'S'
p3084
S'T'
p3085
S'U'
p3086
S'V'
p3087
S'W'
p3088
S'X'
p3089
S'Y'
p3090
S'Z'
p3091
S'['
p3092
S'\\'
p3093
S']'
p3094
S'^'
p3095
S'_'
p3096
S'`'
p3097
S'a'
p3098
S'b'
p3099
S'c'
p3100
S'd'
p3101
S'e'
p3102
S'f'
p3103
S'g'
p3104
S'h'
p3105
S'i'
p3106
S'j'
p3107
S'k'
p3108
S'l'
p3109
S'm'
p3110
S'n'
p3111
S'o'
p3112
S'p'
p3113
S'q'
p3114
S'r'
p3115
S's'
p3116
S't'
p3117
S'u'
p3118
S'v'
p3119
S'w'
p3120
S'x'
p3121
S'y'
p3122
S'z'
p3123
S'{'
p3124
S'|'
p3125
S'}'
p3126
S'~'
p3127
S'\xc2\xb0'
p3128
tp3129
aS'Name Char 00'
p3130
ag3130
ag849
aS'Name_Char_00'
p3131
aa(lp3132
(I32
I127
I1
tp3133
ag3129
aS'Name Char 01'
p3134
ag3134
ag849
aS'Name_Char_01'
p3135
aa(lp3136
(I32
I127
I1
tp3137
ag3129
aS'Name Char 02'
p3138
ag3138
ag849
aS'Name_Char_02'
p3139
aa(lp3140
(I32
I127
I1
tp3141
ag3129
aS'Name Char 03'
p3142
ag3142
ag849
aS'Name_Char_03'
p3143
aa(lp3144
(I32
I127
I1
tp3145
ag3129
aS'Name Char 04'
p3146
ag3146
ag849
aS'Name_Char_04'
p3147
aa(lp3148
(I32
I127
I1
tp3149
ag3129
aS'Name Char 05'
p3150
ag3150
ag849
aS'Name_Char_05'
p3151
aa(lp3152
(I32
I127
I1
tp3153
ag3129
aS'Name Char 06'
p3154
ag3154
ag849
aS'Name_Char_06'
p3155
aa(lp3156
(I32
I127
I1
tp3157
ag3129
aS'Name Char 07'
p3158
ag3158
ag849
aS'Name_Char_07'
p3159
aa(lp3160
(I32
I127
I1
tp3161
ag3129
aS'Name Char 08'
p3162
ag3162
ag849
aS'Name_Char_08'
p3163
aa(lp3164
(I32
I127
I1
tp3165
ag3129
aS'Name Char 09'
p3166
ag3166
ag849
aS'Name_Char_09'
p3167
aa(lp3168
(I32
I127
I1
tp3169
ag3129
aS'Name Char 10'
p3170
ag3170
ag849
aS'Name_Char_10'
p3171
aa(lp3172
(I32
I127
I1
tp3173
ag3129
aS'Name Char 11'
p3174
ag3174
ag849
aS'Name_Char_11'
p3175
aa(lp3176
(I32
I127
I1
tp3177
ag3129
aS'Name Char 12'
p3178
ag3178
ag849
aS'Name_Char_12'
p3179
aa(lp3180
(I32
I127
I1
tp3181
ag3129
aS'Name Char 13'
p3182
ag3182
ag849
aS'Name_Char_13'
p3183
aa(lp3184
(I32
I127
I1
tp3185
ag3129
aS'Name Char 14'
p3186
ag3186
ag849
aS'Name_Char_14'
p3187
aa(lp3188
(I32
I127
I1
tp3189
ag3129
aS'Name Char 15'
p3190
ag3190
ag849
aS'Name_Char_15'
p3191
aa(lp3192
(I0
I12
I1
tp3193
a(lp3194
S'Init'
p3195
aS'Arp '
p3196
aS'Atmo'
p3197
aS'Bass'
p3198
aS'Drum'
p3199
aS'FX  '
p3200
aS'Keys'
p3201
aS'Lead'
p3202
aS'Mono'
p3203
aS'Pad '
p3204
aS'Perc'
p3205
aS'Poly'
p3206
aS'Seq '
p3207
aaS'Category'
p3208
ag3208
ag849
ag3208
aag2
ag2
ag2
a.