(dp0
S'Polarity'
p1
(S'positive'
p2
S'negative'
p3
tp4
sS'Decay'
p5
(S'0'
p6
S'1'
p7
S'2'
p8
S'3'
p9
S'4'
p10
S'5'
p11
S'6'
p12
S'7'
p13
S'8'
p14
S'9'
p15
S'10'
p16
S'11'
p17
S'12'
p18
S'13'
p19
S'14'
p20
S'15'
p21
S'16'
p22
S'17'
p23
S'18'
p24
S'19'
p25
S'20'
p26
S'21'
p27
S'22'
p28
S'23'
p29
S'24'
p30
S'25'
p31
S'26'
p32
S'27'
p33
S'28'
p34
S'29'
p35
S'30'
p36
S'31'
p37
S'32'
p38
S'33'
p39
S'34'
p40
S'35'
p41
S'36'
p42
S'37'
p43
S'38'
p44
S'39'
p45
S'40'
p46
S'41'
p47
S'42'
p48
S'43'
p49
S'44'
p50
S'45'
p51
S'46'
p52
S'47'
p53
S'48'
p54
S'49'
p55
S'50'
p56
S'51'
p57
S'52'
p58
S'53'
p59
S'54'
p60
S'55'
p61
S'56'
p62
S'57'
p63
S'58'
p64
S'59'
p65
S'60'
p66
S'61'
p67
S'62'
p68
S'63'
p69
S'64'
p70
S'65'
p71
S'66'
p72
S'67'
p73
S'68'
p74
S'69'
p75
S'70'
p76
S'71'
p77
S'72'
p78
S'73'
p79
S'74'
p80
S'75'
p81
S'76'
p82
S'77'
p83
S'78'
p84
S'79'
p85
S'80'
p86
S'81'
p87
S'82'
p88
S'83'
p89
S'84'
p90
S'85'
p91
S'86'
p92
S'87'
p93
S'88'
p94
S'89'
p95
S'90'
p96
S'91'
p97
S'92'
p98
S'93'
p99
S'94'
p100
S'95'
p101
S'96'
p102
S'97'
p103
S'98'
p104
S'99'
p105
S'100'
p106
S'101'
p107
S'102'
p108
S'103'
p109
S'104'
p110
S'105'
p111
S'106'
p112
S'107'
p113
S'108'
p114
S'109'
p115
S'110'
p116
S'111'
p117
S'112'
p118
S'113'
p119
S'114'
p120
S'115'
p121
S'116'
p122
S'117'
p123
S'118'
p124
S'119'
p125
S'120'
p126
S'121'
p127
S'122'
p128
S'123'
p129
S'124'
p130
S'125'
p131
S'126'
p132
S'127'
p133
tp134
sS'Chorus Mix'
p135
(g6
g7
g8
g9
g10
g11
g12
g13
g14
g15
S'10'
p136
S'11'
p137
S'12'
p138
S'13'
p139
S'14'
p140
S'15'
p141
S'16'
p142
S'17'
p143
S'18'
p144
S'19'
p145
S'20'
p146
S'21'
p147
S'22'
p148
S'23'
p149
S'24'
p150
S'25'
p151
S'26'
p152
S'27'
p153
S'28'
p154
S'29'
p155
S'30'
p156
S'31'
p157
S'32'
p158
S'33'
p159
S'34'
p160
S'35'
p161
S'36'
p162
S'37'
p163
S'38'
p164
S'39'
p165
S'40'
p166
S'41'
p167
S'42'
p168
S'43'
p169
S'44'
p170
S'45'
p171
S'46'
p172
S'47'
p173
S'48'
p174
S'49'
p175
S'50'
p176
S'51'
p177
S'52'
p178
S'53'
p179
S'54'
p180
S'55'
p181
S'56'
p182
S'57'
p183
S'58'
p184
S'59'
p185
S'60'
p186
S'61'
p187
S'62'
p188
S'63'
p189
S'64'
p190
S'65'
p191
S'66'
p192
S'67'
p193
S'68'
p194
S'69'
p195
S'70'
p196
S'71'
p197
S'72'
p198
S'73'
p199
S'74'
p200
S'75'
p201
S'76'
p202
S'77'
p203
S'78'
p204
S'79'
p205
S'80'
p206
S'81'
p207
S'82'
p208
S'83'
p209
S'84'
p210
S'85'
p211
S'86'
p212
S'87'
p213
S'88'
p214
S'89'
p215
S'90'
p216
S'91'
p217
S'92'
p218
S'93'
p219
S'94'
p220
S'95'
p221
S'96'
p222
S'97'
p223
S'98'
p224
S'99'
p225
S'100'
p226
S'101'
p227
S'102'
p228
S'103'
p229
S'104'
p230
S'105'
p231
S'106'
p232
S'107'
p233
S'108'
p234
S'109'
p235
S'110'
p236
S'111'
p237
S'112'
p238
S'113'
p239
S'114'
p240
S'115'
p241
S'116'
p242
S'117'
p243
S'118'
p244
S'119'
p245
S'120'
p246
S'121'
p247
S'122'
p248
S'123'
p249
S'124'
p250
S'125'
p251
S'126'
p252
S'127'
p253
tp254
sS'Spread'
p255
(S'-64'
p256
S'-63'
p257
S'-62'
p258
S'-61'
p259
S'-60'
p260
S'-59'
p261
S'-58'
p262
S'-57'
p263
S'-56'
p264
S'-55'
p265
S'-54'
p266
S'-53'
p267
S'-52'
p268
S'-51'
p269
S'-50'
p270
S'-49'
p271
S'-48'
p272
S'-47'
p273
S'-46'
p274
S'-45'
p275
S'-44'
p276
S'-43'
p277
S'-42'
p278
S'-41'
p279
S'-40'
p280
S'-39'
p281
S'-38'
p282
S'-37'
p283
S'-36'
p284
S'-35'
p285
S'-34'
p286
S'-33'
p287
S'-32'
p288
S'-31'
p289
S'-30'
p290
S'-29'
p291
S'-28'
p292
S'-27'
p293
S'-26'
p294
S'-25'
p295
S'-24'
p296
S'-23'
p297
S'-22'
p298
S'-21'
p299
S'-20'
p300
S'-19'
p301
S'-18'
p302
S'-17'
p303
S'-16'
p304
S'-15'
p305
S'-14'
p306
S'-13'
p307
S'-12'
p308
S'-11'
p309
S'-10'
p310
S'-9'
p311
S'-8'
p312
S'-7'
p313
S'-6'
p314
S'-5'
p315
S'-4'
p316
S'-3'
p317
S'-2'
p318
S'-1'
p319
S'0'
p320
S'+1'
p321
S'+2'
p322
S'+3'
p323
S'+4'
p324
S'+5'
p325
S'+6'
p326
S'+7'
p327
S'+8'
p328
S'+9'
p329
S'+10'
p330
S'+11'
p331
S'+12'
p332
S'+13'
p333
S'+14'
p334
S'+15'
p335
S'+16'
p336
S'+17'
p337
S'+18'
p338
S'+19'
p339
S'+20'
p340
S'+21'
p341
S'+22'
p342
S'+23'
p343
S'+24'
p344
S'+25'
p345
S'+26'
p346
S'+27'
p347
S'+28'
p348
S'+29'
p349
S'+30'
p350
S'+31'
p351
S'+32'
p352
S'+33'
p353
S'+34'
p354
S'+35'
p355
S'+36'
p356
S'+37'
p357
S'+38'
p358
S'+39'
p359
S'+40'
p360
S'+41'
p361
S'+42'
p362
S'+43'
p363
S'+44'
p364
S'+45'
p365
S'+46'
p366
S'+47'
p367
S'+48'
p368
S'+49'
p369
S'+50'
p370
S'+51'
p371
S'+52'
p372
S'+53'
p373
S'+54'
p374
S'+55'
p375
S'+56'
p376
S'+57'
p377
S'+58'
p378
S'+59'
p379
S'+60'
p380
S'+61'
p381
S'+62'
p382
S'+63'
p383
tp384
sS'Damping'
p385
(g6
g7
g8
g9
g10
g11
g12
g13
g14
g15
S'10'
p386
S'11'
p387
S'12'
p388
S'13'
p389
S'14'
p390
S'15'
p391
S'16'
p392
S'17'
p393
S'18'
p394
S'19'
p395
S'20'
p396
S'21'
p397
S'22'
p398
S'23'
p399
S'24'
p400
S'25'
p401
S'26'
p402
S'27'
p403
S'28'
p404
S'29'
p405
S'30'
p406
S'31'
p407
S'32'
p408
S'33'
p409
S'34'
p410
S'35'
p411
S'36'
p412
S'37'
p413
S'38'
p414
S'39'
p415
S'40'
p416
S'41'
p417
S'42'
p418
S'43'
p419
S'44'
p420
S'45'
p421
S'46'
p422
S'47'
p423
S'48'
p424
S'49'
p425
S'50'
p426
S'51'
p427
S'52'
p428
S'53'
p429
S'54'
p430
S'55'
p431
S'56'
p432
S'57'
p433
S'58'
p434
S'59'
p435
S'60'
p436
S'61'
p437
S'62'
p438
S'63'
p439
S'64'
p440
S'65'
p441
S'66'
p442
S'67'
p443
S'68'
p444
S'69'
p445
S'70'
p446
S'71'
p447
S'72'
p448
S'73'
p449
S'74'
p450
S'75'
p451
S'76'
p452
S'77'
p453
S'78'
p454
S'79'
p455
S'80'
p456
S'81'
p457
S'82'
p458
S'83'
p459
S'84'
p460
S'85'
p461
S'86'
p462
S'87'
p463
S'88'
p464
S'89'
p465
S'90'
p466
S'91'
p467
S'92'
p468
S'93'
p469
S'94'
p470
S'95'
p471
S'96'
p472
S'97'
p473
S'98'
p474
S'99'
p475
S'100'
p476
S'101'
p477
S'102'
p478
S'103'
p479
S'104'
p480
S'105'
p481
S'106'
p482
S'107'
p483
S'108'
p484
S'109'
p485
S'110'
p486
S'111'
p487
S'112'
p488
S'113'
p489
S'114'
p490
S'115'
p491
S'116'
p492
S'117'
p493
S'118'
p494
S'119'
p495
S'120'
p496
S'121'
p497
S'122'
p498
S'123'
p499
S'124'
p500
S'125'
p501
S'126'
p502
S'127'
p503
tp504
sS'Sample&Hold'
p505
(g6
g7
g8
g9
g10
g11
g12
g13
g14
g15
S'10'
p506
S'11'
p507
S'12'
p508
S'13'
p509
S'14'
p510
S'15'
p511
S'16'
p512
S'17'
p513
S'18'
p514
S'19'
p515
S'20'
p516
S'21'
p517
S'22'
p518
S'23'
p519
S'24'
p520
S'25'
p521
S'26'
p522
S'27'
p523
S'28'
p524
S'29'
p525
S'30'
p526
S'31'
p527
S'32'
p528
S'33'
p529
S'34'
p530
S'35'
p531
S'36'
p532
S'37'
p533
S'38'
p534
S'39'
p535
S'40'
p536
S'41'
p537
S'42'
p538
S'43'
p539
S'44'
p540
S'45'
p541
S'46'
p542
S'47'
p543
S'48'
p544
S'49'
p545
S'50'
p546
S'51'
p547
S'52'
p548
S'53'
p549
S'54'
p550
S'55'
p551
S'56'
p552
S'57'
p553
S'58'
p554
S'59'
p555
S'60'
p556
S'61'
p557
S'62'
p558
S'63'
p559
S'64'
p560
S'65'
p561
S'66'
p562
S'67'
p563
S'68'
p564
S'69'
p565
S'70'
p566
S'71'
p567
S'72'
p568
S'73'
p569
S'74'
p570
S'75'
p571
S'76'
p572
S'77'
p573
S'78'
p574
S'79'
p575
S'80'
p576
S'81'
p577
S'82'
p578
S'83'
p579
S'84'
p580
S'85'
p581
S'86'
p582
S'87'
p583
S'88'
p584
S'89'
p585
S'90'
p586
S'91'
p587
S'92'
p588
S'93'
p589
S'94'
p590
S'95'
p591
S'96'
p592
S'97'
p593
S'98'
p594
S'99'
p595
S'100'
p596
S'101'
p597
S'102'
p598
S'103'
p599
S'104'
p600
S'105'
p601
S'106'
p602
S'107'
p603
S'108'
p604
S'109'
p605
S'110'
p606
S'111'
p607
S'112'
p608
S'113'
p609
S'114'
p610
S'115'
p611
S'116'
p612
S'117'
p613
S'118'
p614
S'119'
p615
S'120'
p616
S'121'
p617
S'122'
p618
S'123'
p619
S'124'
p620
S'125'
p621
S'126'
p622
S'127'
p623
tp624
sS'Spacing'
p625
(g6
g7
g8
g9
g10
g11
g12
g13
g14
g15
S'10'
p626
S'11'
p627
S'12'
p628
S'13'
p629
S'14'
p630
S'15'
p631
S'16'
p632
S'17'
p633
S'18'
p634
S'19'
p635
S'20'
p636
S'21'
p637
S'22'
p638
S'23'
p639
S'24'
p640
S'25'
p641
S'26'
p642
S'27'
p643
S'28'
p644
S'29'
p645
S'30'
p646
S'31'
p647
S'32'
p648
S'33'
p649
S'34'
p650
S'35'
p651
S'36'
p652
S'37'
p653
S'38'
p654
S'39'
p655
S'40'
p656
S'41'
p657
S'42'
p658
S'43'
p659
S'44'
p660
S'45'
p661
S'46'
p662
S'47'
p663
S'48'
p664
S'49'
p665
S'50'
p666
S'51'
p667
S'52'
p668
S'53'
p669
S'54'
p670
S'55'
p671
S'56'
p672
S'57'
p673
S'58'
p674
S'59'
p675
S'60'
p676
S'61'
p677
S'62'
p678
S'63'
p679
S'64'
p680
S'65'
p681
S'66'
p682
S'67'
p683
S'68'
p684
S'69'
p685
S'70'
p686
S'71'
p687
S'72'
p688
S'73'
p689
S'74'
p690
S'75'
p691
S'76'
p692
S'77'
p693
S'78'
p694
S'79'
p695
S'80'
p696
S'81'
p697
S'82'
p698
S'83'
p699
S'84'
p700
S'85'
p701
S'86'
p702
S'87'
p703
S'88'
p704
S'89'
p705
S'90'
p706
S'91'
p707
S'92'
p708
S'93'
p709
S'94'
p710
S'95'
p711
S'96'
p712
S'97'
p713
S'98'
p714
S'99'
p715
S'100'
p716
S'101'
p717
S'102'
p718
S'103'
p719
S'104'
p720
S'105'
p721
S'106'
p722
S'107'
p723
S'108'
p724
S'109'
p725
S'110'
p726
S'111'
p727
S'112'
p728
S'113'
p729
S'114'
p730
S'115'
p731
S'116'
p732
S'117'
p733
S'118'
p734
S'119'
p735
S'120'
p736
S'121'
p737
S'122'
p738
S'123'
p739
S'124'
p740
S'125'
p741
S'126'
p742
S'127'
p743
tp744
sS'Shape'
p745
(g6
g7
g8
g9
g10
g11
g12
g13
g14
g15
S'10'
p746
S'11'
p747
S'12'
p748
S'13'
p749
S'14'
p750
S'15'
p751
S'16'
p752
S'17'
p753
S'18'
p754
S'19'
p755
S'20'
p756
S'21'
p757
S'22'
p758
S'23'
p759
S'24'
p760
S'25'
p761
S'26'
p762
S'27'
p763
S'28'
p764
S'29'
p765
S'30'
p766
S'31'
p767
S'32'
p768
S'33'
p769
S'34'
p770
S'35'
p771
S'36'
p772
S'37'
p773
S'38'
p774
S'39'
p775
S'40'
p776
S'41'
p777
S'42'
p778
S'43'
p779
S'44'
p780
S'45'
p781
S'46'
p782
S'47'
p783
S'48'
p784
S'49'
p785
S'50'
p786
S'51'
p787
S'52'
p788
S'53'
p789
S'54'
p790
S'55'
p791
S'56'
p792
S'57'
p793
S'58'
p794
S'59'
p795
S'60'
p796
S'61'
p797
S'62'
p798
S'63'
p799
S'64'
p800
S'65'
p801
S'66'
p802
S'67'
p803
S'68'
p804
S'69'
p805
S'70'
p806
S'71'
p807
S'72'
p808
S'73'
p809
S'74'
p810
S'75'
p811
S'76'
p812
S'77'
p813
S'78'
p814
S'79'
p815
S'80'
p816
S'81'
p817
S'82'
p818
S'83'
p819
S'84'
p820
S'85'
p821
S'86'
p822
S'87'
p823
S'88'
p824
S'89'
p825
S'90'
p826
S'91'
p827
S'92'
p828
S'93'
p829
S'94'
p830
S'95'
p831
S'96'
p832
S'97'
p833
S'98'
p834
S'99'
p835
S'100'
p836
S'101'
p837
S'102'
p838
S'103'
p839
S'104'
p840
S'105'
p841
S'106'
p842
S'107'
p843
S'108'
p844
S'109'
p845
S'110'
p846
S'111'
p847
S'112'
p848
S'113'
p849
S'114'
p850
S'115'
p851
S'116'
p852
S'117'
p853
S'118'
p854
S'119'
p855
S'120'
p856
S'121'
p857
S'122'
p858
S'123'
p859
S'124'
p860
S'125'
p861
S'126'
p862
S'127'
p863
tp864
sS'Highpass'
p865
(g6
g7
g8
g9
g10
g11
g12
g13
g14
g15
S'10'
p866
S'11'
p867
S'12'
p868
S'13'
p869
S'14'
p870
S'15'
p871
S'16'
p872
S'17'
p873
S'18'
p874
S'19'
p875
S'20'
p876
S'21'
p877
S'22'
p878
S'23'
p879
S'24'
p880
S'25'
p881
S'26'
p882
S'27'
p883
S'28'
p884
S'29'
p885
S'30'
p886
S'31'
p887
S'32'
p888
S'33'
p889
S'34'
p890
S'35'
p891
S'36'
p892
S'37'
p893
S'38'
p894
S'39'
p895
S'40'
p896
S'41'
p897
S'42'
p898
S'43'
p899
S'44'
p900
S'45'
p901
S'46'
p902
S'47'
p903
S'48'
p904
S'49'
p905
S'50'
p906
S'51'
p907
S'52'
p908
S'53'
p909
S'54'
p910
S'55'
p911
S'56'
p912
S'57'
p913
S'58'
p914
S'59'
p915
S'60'
p916
S'61'
p917
S'62'
p918
S'63'
p919
S'64'
p920
S'65'
p921
S'66'
p922
S'67'
p923
S'68'
p924
S'69'
p925
S'70'
p926
S'71'
p927
S'72'
p928
S'73'
p929
S'74'
p930
S'75'
p931
S'76'
p932
S'77'
p933
S'78'
p934
S'79'
p935
S'80'
p936
S'81'
p937
S'82'
p938
S'83'
p939
S'84'
p940
S'85'
p941
S'86'
p942
S'87'
p943
S'88'
p944
S'89'
p945
S'90'
p946
S'91'
p947
S'92'
p948
S'93'
p949
S'94'
p950
S'95'
p951
S'96'
p952
S'97'
p953
S'98'
p954
S'99'
p955
S'100'
p956
S'101'
p957
S'102'
p958
S'103'
p959
S'104'
p960
S'105'
p961
S'106'
p962
S'107'
p963
S'108'
p964
S'109'
p965
S'110'
p966
S'111'
p967
S'112'
p968
S'113'
p969
S'114'
p970
S'115'
p971
S'116'
p972
S'117'
p973
S'118'
p974
S'119'
p975
S'120'
p976
S'121'
p977
S'122'
p978
S'123'
p979
S'124'
p980
S'125'
p981
S'126'
p982
S'127'
p983
tp984
sS'Overdrive'
p985
(g6
g7
g8
g9
g10
g11
g12
g13
g14
g15
S'10'
p986
S'11'
p987
S'12'
p988
S'13'
p989
S'14'
p990
S'15'
p991
S'16'
p992
S'17'
p993
S'18'
p994
S'19'
p995
S'20'
p996
S'21'
p997
S'22'
p998
S'23'
p999
S'24'
p1000
S'25'
p1001
S'26'
p1002
S'27'
p1003
S'28'
p1004
S'29'
p1005
S'30'
p1006
S'31'
p1007
S'32'
p1008
S'33'
p1009
S'34'
p1010
S'35'
p1011
S'36'
p1012
S'37'
p1013
S'38'
p1014
S'39'
p1015
S'40'
p1016
S'41'
p1017
S'42'
p1018
S'43'
p1019
S'44'
p1020
S'45'
p1021
S'46'
p1022
S'47'
p1023
S'48'
p1024
S'49'
p1025
S'50'
p1026
S'51'
p1027
S'52'
p1028
S'53'
p1029
S'54'
p1030
S'55'
p1031
S'56'
p1032
S'57'
p1033
S'58'
p1034
S'59'
p1035
S'60'
p1036
S'61'
p1037
S'62'
p1038
S'63'
p1039
S'64'
p1040
S'65'
p1041
S'66'
p1042
S'67'
p1043
S'68'
p1044
S'69'
p1045
S'70'
p1046
S'71'
p1047
S'72'
p1048
S'73'
p1049
S'74'
p1050
S'75'
p1051
S'76'
p1052
S'77'
p1053
S'78'
p1054
S'79'
p1055
S'80'
p1056
S'81'
p1057
S'82'
p1058
S'83'
p1059
S'84'
p1060
S'85'
p1061
S'86'
p1062
S'87'
p1063
S'88'
p1064
S'89'
p1065
S'90'
p1066
S'91'
p1067
S'92'
p1068
S'93'
p1069
S'94'
p1070
S'95'
p1071
S'96'
p1072
S'97'
p1073
S'98'
p1074
S'99'
p1075
S'100'
p1076
S'101'
p1077
S'102'
p1078
S'103'
p1079
S'104'
p1080
S'105'
p1081
S'106'
p1082
S'107'
p1083
S'108'
p1084
S'109'
p1085
S'110'
p1086
S'111'
p1087
S'112'
p1088
S'113'
p1089
S'114'
p1090
S'115'
p1091
S'116'
p1092
S'117'
p1093
S'118'
p1094
S'119'
p1095
S'120'
p1096
S'121'
p1097
S'122'
p1098
S'123'
p1099
S'124'
p1100
S'125'
p1101
S'126'
p1102
S'127'
p1103
tp1104
sS'Diffusion'
p1105
(g6
g7
g8
g9
g10
g11
g12
g13
g14
g15
S'10'
p1106
S'11'
p1107
S'12'
p1108
S'13'
p1109
S'14'
p1110
S'15'
p1111
S'16'
p1112
S'17'
p1113
S'18'
p1114
S'19'
p1115
S'20'
p1116
S'21'
p1117
S'22'
p1118
S'23'
p1119
S'24'
p1120
S'25'
p1121
S'26'
p1122
S'27'
p1123
S'28'
p1124
S'29'
p1125
S'30'
p1126
S'31'
p1127
S'32'
p1128
S'33'
p1129
S'34'
p1130
S'35'
p1131
S'36'
p1132
S'37'
p1133
S'38'
p1134
S'39'
p1135
S'40'
p1136
S'41'
p1137
S'42'
p1138
S'43'
p1139
S'44'
p1140
S'45'
p1141
S'46'
p1142
S'47'
p1143
S'48'
p1144
S'49'
p1145
S'50'
p1146
S'51'
p1147
S'52'
p1148
S'53'
p1149
S'54'
p1150
S'55'
p1151
S'56'
p1152
S'57'
p1153
S'58'
p1154
S'59'
p1155
S'60'
p1156
S'61'
p1157
S'62'
p1158
S'63'
p1159
S'64'
p1160
S'65'
p1161
S'66'
p1162
S'67'
p1163
S'68'
p1164
S'69'
p1165
S'70'
p1166
S'71'
p1167
S'72'
p1168
S'73'
p1169
S'74'
p1170
S'75'
p1171
S'76'
p1172
S'77'
p1173
S'78'
p1174
S'79'
p1175
S'80'
p1176
S'81'
p1177
S'82'
p1178
S'83'
p1179
S'84'
p1180
S'85'
p1181
S'86'
p1182
S'87'
p1183
S'88'
p1184
S'89'
p1185
S'90'
p1186
S'91'
p1187
S'92'
p1188
S'93'
p1189
S'94'
p1190
S'95'
p1191
S'96'
p1192
S'97'
p1193
S'98'
p1194
S'99'
p1195
S'100'
p1196
S'101'
p1197
S'102'
p1198
S'103'
p1199
S'104'
p1200
S'105'
p1201
S'106'
p1202
S'107'
p1203
S'108'
p1204
S'109'
p1205
S'110'
p1206
S'111'
p1207
S'112'
p1208
S'113'
p1209
S'114'
p1210
S'115'
p1211
S'116'
p1212
S'117'
p1213
S'118'
p1214
S'119'
p1215
S'120'
p1216
S'121'
p1217
S'122'
p1218
S'123'
p1219
S'124'
p1220
S'125'
p1221
S'126'
p1222
S'127'
p1223
tp1224
sS'Center'
p1225
(g6
g7
g8
g9
g10
g11
g12
g13
g14
g15
S'10'
p1226
S'11'
p1227
S'12'
p1228
S'13'
p1229
S'14'
p1230
S'15'
p1231
S'16'
p1232
S'17'
p1233
S'18'
p1234
S'19'
p1235
S'20'
p1236
S'21'
p1237
S'22'
p1238
S'23'
p1239
S'24'
p1240
S'25'
p1241
S'26'
p1242
S'27'
p1243
S'28'
p1244
S'29'
p1245
S'30'
p1246
S'31'
p1247
S'32'
p1248
S'33'
p1249
S'34'
p1250
S'35'
p1251
S'36'
p1252
S'37'
p1253
S'38'
p1254
S'39'
p1255
S'40'
p1256
S'41'
p1257
S'42'
p1258
S'43'
p1259
S'44'
p1260
S'45'
p1261
S'46'
p1262
S'47'
p1263
S'48'
p1264
S'49'
p1265
S'50'
p1266
S'51'
p1267
S'52'
p1268
S'53'
p1269
S'54'
p1270
S'55'
p1271
S'56'
p1272
S'57'
p1273
S'58'
p1274
S'59'
p1275
S'60'
p1276
S'61'
p1277
S'62'
p1278
S'63'
p1279
S'64'
p1280
S'65'
p1281
S'66'
p1282
S'67'
p1283
S'68'
p1284
S'69'
p1285
S'70'
p1286
S'71'
p1287
S'72'
p1288
S'73'
p1289
S'74'
p1290
S'75'
p1291
S'76'
p1292
S'77'
p1293
S'78'
p1294
S'79'
p1295
S'80'
p1296
S'81'
p1297
S'82'
p1298
S'83'
p1299
S'84'
p1300
S'85'
p1301
S'86'
p1302
S'87'
p1303
S'88'
p1304
S'89'
p1305
S'90'
p1306
S'91'
p1307
S'92'
p1308
S'93'
p1309
S'94'
p1310
S'95'
p1311
S'96'
p1312
S'97'
p1313
S'98'
p1314
S'99'
p1315
S'100'
p1316
S'101'
p1317
S'102'
p1318
S'103'
p1319
S'104'
p1320
S'105'
p1321
S'106'
p1322
S'107'
p1323
S'108'
p1324
S'109'
p1325
S'110'
p1326
S'111'
p1327
S'112'
p1328
S'113'
p1329
S'114'
p1330
S'115'
p1331
S'116'
p1332
S'117'
p1333
S'118'
p1334
S'119'
p1335
S'120'
p1336
S'121'
p1337
S'122'
p1338
S'123'
p1339
S'124'
p1340
S'125'
p1341
S'126'
p1342
S'127'
p1343
tp1344
sS'Curve'
p1345
(S'Clipping'
p1346
S'Tube'
p1347
S'Hard'
p1348
S'Medium'
p1349
S'Soft'
p1350
S'Pickup 1'
p1351
S'Pickup 2'
p1352
S'Rectifier'
p1353
S'Square'
p1354
S'Binary'
p1355
S'Overflow'
p1356
S'Sine Shaper'
p1357
tp1358
sS'Drive'
p1359
(g6
g7
g8
g9
g10
g11
g12
g13
g14
g15
S'10'
p1360
S'11'
p1361
S'12'
p1362
S'13'
p1363
S'14'
p1364
S'15'
p1365
S'16'
p1366
S'17'
p1367
S'18'
p1368
S'19'
p1369
S'20'
p1370
S'21'
p1371
S'22'
p1372
S'23'
p1373
S'24'
p1374
S'25'
p1375
S'26'
p1376
S'27'
p1377
S'28'
p1378
S'29'
p1379
S'30'
p1380
S'31'
p1381
S'32'
p1382
S'33'
p1383
S'34'
p1384
S'35'
p1385
S'36'
p1386
S'37'
p1387
S'38'
p1388
S'39'
p1389
S'40'
p1390
S'41'
p1391
S'42'
p1392
S'43'
p1393
S'44'
p1394
S'45'
p1395
S'46'
p1396
S'47'
p1397
S'48'
p1398
S'49'
p1399
S'50'
p1400
S'51'
p1401
S'52'
p1402
S'53'
p1403
S'54'
p1404
S'55'
p1405
S'56'
p1406
S'57'
p1407
S'58'
p1408
S'59'
p1409
S'60'
p1410
S'61'
p1411
S'62'
p1412
S'63'
p1413
S'64'
p1414
S'65'
p1415
S'66'
p1416
S'67'
p1417
S'68'
p1418
S'69'
p1419
S'70'
p1420
S'71'
p1421
S'72'
p1422
S'73'
p1423
S'74'
p1424
S'75'
p1425
S'76'
p1426
S'77'
p1427
S'78'
p1428
S'79'
p1429
S'80'
p1430
S'81'
p1431
S'82'
p1432
S'83'
p1433
S'84'
p1434
S'85'
p1435
S'86'
p1436
S'87'
p1437
S'88'
p1438
S'89'
p1439
S'90'
p1440
S'91'
p1441
S'92'
p1442
S'93'
p1443
S'94'
p1444
S'95'
p1445
S'96'
p1446
S'97'
p1447
S'98'
p1448
S'99'
p1449
S'100'
p1450
S'101'
p1451
S'102'
p1452
S'103'
p1453
S'104'
p1454
S'105'
p1455
S'106'
p1456
S'107'
p1457
S'108'
p1458
S'109'
p1459
S'110'
p1460
S'111'
p1461
S'112'
p1462
S'113'
p1463
S'114'
p1464
S'115'
p1465
S'116'
p1466
S'117'
p1467
S'118'
p1468
S'119'
p1469
S'120'
p1470
S'121'
p1471
S'122'
p1472
S'123'
p1473
S'124'
p1474
S'125'
p1475
S'126'
p1476
S'127'
p1477
tp1478
sS'Depth'
p1479
(g6
g7
g8
g9
g10
g11
g12
g13
g14
g15
S'10'
p1480
S'11'
p1481
S'12'
p1482
S'13'
p1483
S'14'
p1484
S'15'
p1485
S'16'
p1486
S'17'
p1487
S'18'
p1488
S'19'
p1489
S'20'
p1490
S'21'
p1491
S'22'
p1492
S'23'
p1493
S'24'
p1494
S'25'
p1495
S'26'
p1496
S'27'
p1497
S'28'
p1498
S'29'
p1499
S'30'
p1500
S'31'
p1501
S'32'
p1502
S'33'
p1503
S'34'
p1504
S'35'
p1505
S'36'
p1506
S'37'
p1507
S'38'
p1508
S'39'
p1509
S'40'
p1510
S'41'
p1511
S'42'
p1512
S'43'
p1513
S'44'
p1514
S'45'
p1515
S'46'
p1516
S'47'
p1517
S'48'
p1518
S'49'
p1519
S'50'
p1520
S'51'
p1521
S'52'
p1522
S'53'
p1523
S'54'
p1524
S'55'
p1525
S'56'
p1526
S'57'
p1527
S'58'
p1528
S'59'
p1529
S'60'
p1530
S'61'
p1531
S'62'
p1532
S'63'
p1533
S'64'
p1534
S'65'
p1535
S'66'
p1536
S'67'
p1537
S'68'
p1538
S'69'
p1539
S'70'
p1540
S'71'
p1541
S'72'
p1542
S'73'
p1543
S'74'
p1544
S'75'
p1545
S'76'
p1546
S'77'
p1547
S'78'
p1548
S'79'
p1549
S'80'
p1550
S'81'
p1551
S'82'
p1552
S'83'
p1553
S'84'
p1554
S'85'
p1555
S'86'
p1556
S'87'
p1557
S'88'
p1558
S'89'
p1559
S'90'
p1560
S'91'
p1561
S'92'
p1562
S'93'
p1563
S'94'
p1564
S'95'
p1565
S'96'
p1566
S'97'
p1567
S'98'
p1568
S'99'
p1569
S'100'
p1570
S'101'
p1571
S'102'
p1572
S'103'
p1573
S'104'
p1574
S'105'
p1575
S'106'
p1576
S'107'
p1577
S'108'
p1578
S'109'
p1579
S'110'
p1580
S'111'
p1581
S'112'
p1582
S'113'
p1583
S'114'
p1584
S'115'
p1585
S'116'
p1586
S'117'
p1587
S'118'
p1588
S'119'
p1589
S'120'
p1590
S'121'
p1591
S'122'
p1592
S'123'
p1593
S'124'
p1594
S'125'
p1595
S'126'
p1596
S'127'
p1597
tp1598
sS'Cutoff'
p1599
(g6
g7
g8
g9
g10
g11
g12
g13
g14
g15
S'10'
p1600
S'11'
p1601
S'12'
p1602
S'13'
p1603
S'14'
p1604
S'15'
p1605
S'16'
p1606
S'17'
p1607
S'18'
p1608
S'19'
p1609
S'20'
p1610
S'21'
p1611
S'22'
p1612
S'23'
p1613
S'24'
p1614
S'25'
p1615
S'26'
p1616
S'27'
p1617
S'28'
p1618
S'29'
p1619
S'30'
p1620
S'31'
p1621
S'32'
p1622
S'33'
p1623
S'34'
p1624
S'35'
p1625
S'36'
p1626
S'37'
p1627
S'38'
p1628
S'39'
p1629
S'40'
p1630
S'41'
p1631
S'42'
p1632
S'43'
p1633
S'44'
p1634
S'45'
p1635
S'46'
p1636
S'47'
p1637
S'48'
p1638
S'49'
p1639
S'50'
p1640
S'51'
p1641
S'52'
p1642
S'53'
p1643
S'54'
p1644
S'55'
p1645
S'56'
p1646
S'57'
p1647
S'58'
p1648
S'59'
p1649
S'60'
p1650
S'61'
p1651
S'62'
p1652
S'63'
p1653
S'64'
p1654
S'65'
p1655
S'66'
p1656
S'67'
p1657
S'68'
p1658
S'69'
p1659
S'70'
p1660
S'71'
p1661
S'72'
p1662
S'73'
p1663
S'74'
p1664
S'75'
p1665
S'76'
p1666
S'77'
p1667
S'78'
p1668
S'79'
p1669
S'80'
p1670
S'81'
p1671
S'82'
p1672
S'83'
p1673
S'84'
p1674
S'85'
p1675
S'86'
p1676
S'87'
p1677
S'88'
p1678
S'89'
p1679
S'90'
p1680
S'91'
p1681
S'92'
p1682
S'93'
p1683
S'94'
p1684
S'95'
p1685
S'96'
p1686
S'97'
p1687
S'98'
p1688
S'99'
p1689
S'100'
p1690
S'101'
p1691
S'102'
p1692
S'103'
p1693
S'104'
p1694
S'105'
p1695
S'106'
p1696
S'107'
p1697
S'108'
p1698
S'109'
p1699
S'110'
p1700
S'111'
p1701
S'112'
p1702
S'113'
p1703
S'114'
p1704
S'115'
p1705
S'116'
p1706
S'117'
p1707
S'118'
p1708
S'119'
p1709
S'120'
p1710
S'121'
p1711
S'122'
p1712
S'123'
p1713
S'124'
p1714
S'125'
p1715
S'126'
p1716
S'127'
p1717
tp1718
sS'Feedback'
p1719
(g6
g7
g8
g9
g10
g11
g12
g13
g14
g15
S'10'
p1720
S'11'
p1721
S'12'
p1722
S'13'
p1723
S'14'
p1724
S'15'
p1725
S'16'
p1726
S'17'
p1727
S'18'
p1728
S'19'
p1729
S'20'
p1730
S'21'
p1731
S'22'
p1732
S'23'
p1733
S'24'
p1734
S'25'
p1735
S'26'
p1736
S'27'
p1737
S'28'
p1738
S'29'
p1739
S'30'
p1740
S'31'
p1741
S'32'
p1742
S'33'
p1743
S'34'
p1744
S'35'
p1745
S'36'
p1746
S'37'
p1747
S'38'
p1748
S'39'
p1749
S'40'
p1750
S'41'
p1751
S'42'
p1752
S'43'
p1753
S'44'
p1754
S'45'
p1755
S'46'
p1756
S'47'
p1757
S'48'
p1758
S'49'
p1759
S'50'
p1760
S'51'
p1761
S'52'
p1762
S'53'
p1763
S'54'
p1764
S'55'
p1765
S'56'
p1766
S'57'
p1767
S'58'
p1768
S'59'
p1769
S'60'
p1770
S'61'
p1771
S'62'
p1772
S'63'
p1773
S'64'
p1774
S'65'
p1775
S'66'
p1776
S'67'
p1777
S'68'
p1778
S'69'
p1779
S'70'
p1780
S'71'
p1781
S'72'
p1782
S'73'
p1783
S'74'
p1784
S'75'
p1785
S'76'
p1786
S'77'
p1787
S'78'
p1788
S'79'
p1789
S'80'
p1790
S'81'
p1791
S'82'
p1792
S'83'
p1793
S'84'
p1794
S'85'
p1795
S'86'
p1796
S'87'
p1797
S'88'
p1798
S'89'
p1799
S'90'
p1800
S'91'
p1801
S'92'
p1802
S'93'
p1803
S'94'
p1804
S'95'
p1805
S'96'
p1806
S'97'
p1807
S'98'
p1808
S'99'
p1809
S'100'
p1810
S'101'
p1811
S'102'
p1812
S'103'
p1813
S'104'
p1814
S'105'
p1815
S'106'
p1816
S'107'
p1817
S'108'
p1818
S'109'
p1819
S'110'
p1820
S'111'
p1821
S'112'
p1822
S'113'
p1823
S'114'
p1824
S'115'
p1825
S'116'
p1826
S'117'
p1827
S'118'
p1828
S'119'
p1829
S'120'
p1830
S'121'
p1831
S'122'
p1832
S'123'
p1833
S'124'
p1834
S'125'
p1835
S'126'
p1836
S'127'
p1837
tp1838
sS'Length'
p1839
(lp1840
S'1/96'
p1841
aS'1/48'
p1842
aS'1/32 '
p1843
aS'1/16T'
p1844
aS'1/32.'
p1845
aS'1/16 '
p1846
aS'1/8T'
p1847
aS'1/16.'
p1848
aS'1/8 '
p1849
aS'1/4T'
p1850
aS'1/8.'
p1851
aS'1/4 '
p1852
aS'1/2T'
p1853
aS'1/4.'
p1854
aS'1/2 '
p1855
aS'1/1T'
p1856
aS'1/2.'
p1857
aS'1 bar'
p1858
aS'1.5 bars'
p1859
aS'2 bars'
p1860
aS'2.5 bars'
p1861
aS'3 bars'
p1862
aS'3.5 bars'
p1863
aS'4 bars'
p1864
aS'5 bars'
p1865
aS'6 bars'
p1866
aS'7 bars'
p1867
aS'8 bars'
p1868
aS'9 bars'
p1869
aS'10 bars'
p1870
asS'Post Gain'
p1871
(g6
g7
g8
g9
g10
g11
g12
g13
g14
g15
S'10'
p1872
S'11'
p1873
S'12'
p1874
S'13'
p1875
S'14'
p1876
S'15'
p1877
S'16'
p1878
S'17'
p1879
S'18'
p1880
S'19'
p1881
S'20'
p1882
S'21'
p1883
S'22'
p1884
S'23'
p1885
S'24'
p1886
S'25'
p1887
S'26'
p1888
S'27'
p1889
S'28'
p1890
S'29'
p1891
S'30'
p1892
S'31'
p1893
S'32'
p1894
S'33'
p1895
S'34'
p1896
S'35'
p1897
S'36'
p1898
S'37'
p1899
S'38'
p1900
S'39'
p1901
S'40'
p1902
S'41'
p1903
S'42'
p1904
S'43'
p1905
S'44'
p1906
S'45'
p1907
S'46'
p1908
S'47'
p1909
S'48'
p1910
S'49'
p1911
S'50'
p1912
S'51'
p1913
S'52'
p1914
S'53'
p1915
S'54'
p1916
S'55'
p1917
S'56'
p1918
S'57'
p1919
S'58'
p1920
S'59'
p1921
S'60'
p1922
S'61'
p1923
S'62'
p1924
S'63'
p1925
S'64'
p1926
S'65'
p1927
S'66'
p1928
S'67'
p1929
S'68'
p1930
S'69'
p1931
S'70'
p1932
S'71'
p1933
S'72'
p1934
S'73'
p1935
S'74'
p1936
S'75'
p1937
S'76'
p1938
S'77'
p1939
S'78'
p1940
S'79'
p1941
S'80'
p1942
S'81'
p1943
S'82'
p1944
S'83'
p1945
S'84'
p1946
S'85'
p1947
S'86'
p1948
S'87'
p1949
S'88'
p1950
S'89'
p1951
S'90'
p1952
S'91'
p1953
S'92'
p1954
S'93'
p1955
S'94'
p1956
S'95'
p1957
S'96'
p1958
S'97'
p1959
S'98'
p1960
S'99'
p1961
S'100'
p1962
S'101'
p1963
S'102'
p1964
S'103'
p1965
S'104'
p1966
S'105'
p1967
S'106'
p1968
S'107'
p1969
S'108'
p1970
S'109'
p1971
S'110'
p1972
S'111'
p1973
S'112'
p1974
S'113'
p1975
S'114'
p1976
S'115'
p1977
S'116'
p1978
S'117'
p1979
S'118'
p1980
S'119'
p1981
S'120'
p1982
S'121'
p1983
S'122'
p1984
S'123'
p1985
S'124'
p1986
S'125'
p1987
S'126'
p1988
S'127'
p1989
tp1990
sS'Lowpass'
p1991
(g6
g7
g8
g9
g10
g11
g12
g13
g14
g15
S'10'
p1992
S'11'
p1993
S'12'
p1994
S'13'
p1995
S'14'
p1996
S'15'
p1997
S'16'
p1998
S'17'
p1999
S'18'
p2000
S'19'
p2001
S'20'
p2002
S'21'
p2003
S'22'
p2004
S'23'
p2005
S'24'
p2006
S'25'
p2007
S'26'
p2008
S'27'
p2009
S'28'
p2010
S'29'
p2011
S'30'
p2012
S'31'
p2013
S'32'
p2014
S'33'
p2015
S'34'
p2016
S'35'
p2017
S'36'
p2018
S'37'
p2019
S'38'
p2020
S'39'
p2021
S'40'
p2022
S'41'
p2023
S'42'
p2024
S'43'
p2025
S'44'
p2026
S'45'
p2027
S'46'
p2028
S'47'
p2029
S'48'
p2030
S'49'
p2031
S'50'
p2032
S'51'
p2033
S'52'
p2034
S'53'
p2035
S'54'
p2036
S'55'
p2037
S'56'
p2038
S'57'
p2039
S'58'
p2040
S'59'
p2041
S'60'
p2042
S'61'
p2043
S'62'
p2044
S'63'
p2045
S'64'
p2046
S'65'
p2047
S'66'
p2048
S'67'
p2049
S'68'
p2050
S'69'
p2051
S'70'
p2052
S'71'
p2053
S'72'
p2054
S'73'
p2055
S'74'
p2056
S'75'
p2057
S'76'
p2058
S'77'
p2059
S'78'
p2060
S'79'
p2061
S'80'
p2062
S'81'
p2063
S'82'
p2064
S'83'
p2065
S'84'
p2066
S'85'
p2067
S'86'
p2068
S'87'
p2069
S'88'
p2070
S'89'
p2071
S'90'
p2072
S'91'
p2073
S'92'
p2074
S'93'
p2075
S'94'
p2076
S'95'
p2077
S'96'
p2078
S'97'
p2079
S'98'
p2080
S'99'
p2081
S'100'
p2082
S'101'
p2083
S'102'
p2084
S'103'
p2085
S'104'
p2086
S'105'
p2087
S'106'
p2088
S'107'
p2089
S'108'
p2090
S'109'
p2091
S'110'
p2092
S'111'
p2093
S'112'
p2094
S'113'
p2095
S'114'
p2096
S'115'
p2097
S'116'
p2098
S'117'
p2099
S'118'
p2100
S'119'
p2101
S'120'
p2102
S'121'
p2103
S'122'
p2104
S'123'
p2105
S'124'
p2106
S'125'
p2107
S'126'
p2108
S'127'
p2109
tp2110
sS'Speed'
p2111
(g6
g7
g8
g9
g10
g11
g12
g13
g14
g15
S'10'
p2112
S'11'
p2113
S'12'
p2114
S'13'
p2115
S'14'
p2116
S'15'
p2117
S'16'
p2118
S'17'
p2119
S'18'
p2120
S'19'
p2121
S'20'
p2122
S'21'
p2123
S'22'
p2124
S'23'
p2125
S'24'
p2126
S'25'
p2127
S'26'
p2128
S'27'
p2129
S'28'
p2130
S'29'
p2131
S'30'
p2132
S'31'
p2133
S'32'
p2134
S'33'
p2135
S'34'
p2136
S'35'
p2137
S'36'
p2138
S'37'
p2139
S'38'
p2140
S'39'
p2141
S'40'
p2142
S'41'
p2143
S'42'
p2144
S'43'
p2145
S'44'
p2146
S'45'
p2147
S'46'
p2148
S'47'
p2149
S'48'
p2150
S'49'
p2151
S'50'
p2152
S'51'
p2153
S'52'
p2154
S'53'
p2155
S'54'
p2156
S'55'
p2157
S'56'
p2158
S'57'
p2159
S'58'
p2160
S'59'
p2161
S'60'
p2162
S'61'
p2163
S'62'
p2164
S'63'
p2165
S'64'
p2166
S'65'
p2167
S'66'
p2168
S'67'
p2169
S'68'
p2170
S'69'
p2171
S'70'
p2172
S'71'
p2173
S'72'
p2174
S'73'
p2175
S'74'
p2176
S'75'
p2177
S'76'
p2178
S'77'
p2179
S'78'
p2180
S'79'
p2181
S'80'
p2182
S'81'
p2183
S'82'
p2184
S'83'
p2185
S'84'
p2186
S'85'
p2187
S'86'
p2188
S'87'
p2189
S'88'
p2190
S'89'
p2191
S'90'
p2192
S'91'
p2193
S'92'
p2194
S'93'
p2195
S'94'
p2196
S'95'
p2197
S'96'
p2198
S'97'
p2199
S'98'
p2200
S'99'
p2201
S'100'
p2202
S'101'
p2203
S'102'
p2204
S'103'
p2205
S'104'
p2206
S'105'
p2207
S'106'
p2208
S'107'
p2209
S'108'
p2210
S'109'
p2211
S'110'
p2212
S'111'
p2213
S'112'
p2214
S'113'
p2215
S'114'
p2216
S'115'
p2217
S'116'
p2218
S'117'
p2219
S'118'
p2220
S'119'
p2221
S'120'
p2222
S'121'
p2223
S'122'
p2224
S'123'
p2225
S'124'
p2226
S'125'
p2227
S'126'
p2228
S'127'
p2229
tp2230
sS'Size'
p2231
(g6
g7
g8
g9
g10
g11
g12
g13
g14
g15
S'10'
p2232
S'11'
p2233
S'12'
p2234
S'13'
p2235
S'14'
p2236
S'15'
p2237
S'16'
p2238
S'17'
p2239
S'18'
p2240
S'19'
p2241
S'20'
p2242
S'21'
p2243
S'22'
p2244
S'23'
p2245
S'24'
p2246
S'25'
p2247
S'26'
p2248
S'27'
p2249
S'28'
p2250
S'29'
p2251
S'30'
p2252
S'31'
p2253
S'32'
p2254
S'33'
p2255
S'34'
p2256
S'35'
p2257
S'36'
p2258
S'37'
p2259
S'38'
p2260
S'39'
p2261
S'40'
p2262
S'41'
p2263
S'42'
p2264
S'43'
p2265
S'44'
p2266
S'45'
p2267
S'46'
p2268
S'47'
p2269
S'48'
p2270
S'49'
p2271
S'50'
p2272
S'51'
p2273
S'52'
p2274
S'53'
p2275
S'54'
p2276
S'55'
p2277
S'56'
p2278
S'57'
p2279
S'58'
p2280
S'59'
p2281
S'60'
p2282
S'61'
p2283
S'62'
p2284
S'63'
p2285
S'64'
p2286
S'65'
p2287
S'66'
p2288
S'67'
p2289
S'68'
p2290
S'69'
p2291
S'70'
p2292
S'71'
p2293
S'72'
p2294
S'73'
p2295
S'74'
p2296
S'75'
p2297
S'76'
p2298
S'77'
p2299
S'78'
p2300
S'79'
p2301
S'80'
p2302
S'81'
p2303
S'82'
p2304
S'83'
p2305
S'84'
p2306
S'85'
p2307
S'86'
p2308
S'87'
p2309
S'88'
p2310
S'89'
p2311
S'90'
p2312
S'91'
p2313
S'92'
p2314
S'93'
p2315
S'94'
p2316
S'95'
p2317
S'96'
p2318
S'97'
p2319
S'98'
p2320
S'99'
p2321
S'100'
p2322
S'101'
p2323
S'102'
p2324
S'103'
p2325
S'104'
p2326
S'105'
p2327
S'106'
p2328
S'107'
p2329
S'108'
p2330
S'109'
p2331
S'110'
p2332
S'111'
p2333
S'112'
p2334
S'113'
p2335
S'114'
p2336
S'115'
p2337
S'116'
p2338
S'117'
p2339
S'118'
p2340
S'119'
p2341
S'120'
p2342
S'121'
p2343
S'122'
p2344
S'123'
p2345
S'124'
p2346
S'125'
p2347
S'126'
p2348
S'127'
p2349
tp2350
s.