(lp0
(S'reserved'
p1
NNNNNtp2
a(lp3
(I16
I112
I12
tp4
a(S"128'"
p5
S"64'"
p6
S"32'"
p7
S"16'"
p8
S"8'"
p9
S"4'"
p10
S"2'"
p11
S"1'"
p12
S"1/2'"
p13
tp14
aS'Osc 1 Octave'
p15
aS'Octave'
p16
aS'Osc 1'
p17
aS'Osc_1_Octave'
p18
aa(lp19
(I52
I76
I1
tp20
a(S'-12'
p21
S'-11'
p22
S'-10'
p23
S'-9'
p24
S'-8'
p25
S'-7'
p26
S'-6'
p27
S'-5'
p28
S'-4'
p29
S'-3'
p30
S'-2'
p31
S'-1'
p32
S'0'
p33
S'+1'
p34
S'+2'
p35
S'+3'
p36
S'+4'
p37
S'+5'
p38
S'+6'
p39
S'+7'
p40
S'+8'
p41
S'+9'
p42
S'+10'
p43
S'+11'
p44
S'+12'
p45
tp46
aS'Osc 1 Semitone'
p47
aS'Semitone'
p48
aS'Osc 1'
p49
aS'Osc_1_Semitone'
p50
aa(lp51
(I0
I127
I1
tp52
a(S'-64'
p53
S'-63'
p54
S'-62'
p55
S'-61'
p56
S'-60'
p57
S'-59'
p58
S'-58'
p59
S'-57'
p60
S'-56'
p61
S'-55'
p62
S'-54'
p63
S'-53'
p64
S'-52'
p65
S'-51'
p66
S'-50'
p67
S'-49'
p68
S'-48'
p69
S'-47'
p70
S'-46'
p71
S'-45'
p72
S'-44'
p73
S'-43'
p74
S'-42'
p75
S'-41'
p76
S'-40'
p77
S'-39'
p78
S'-38'
p79
S'-37'
p80
S'-36'
p81
S'-35'
p82
S'-34'
p83
S'-33'
p84
S'-32'
p85
S'-31'
p86
S'-30'
p87
S'-29'
p88
S'-28'
p89
S'-27'
p90
S'-26'
p91
S'-25'
p92
S'-24'
p93
S'-23'
p94
S'-22'
p95
S'-21'
p96
S'-20'
p97
S'-19'
p98
S'-18'
p99
S'-17'
p100
S'-16'
p101
S'-15'
p102
S'-14'
p103
S'-13'
p104
S'-12'
p105
S'-11'
p106
S'-10'
p107
S'-9'
p108
S'-8'
p109
S'-7'
p110
S'-6'
p111
S'-5'
p112
S'-4'
p113
S'-3'
p114
S'-2'
p115
S'-1'
p116
S'0'
p117
S'+1'
p118
S'+2'
p119
S'+3'
p120
S'+4'
p121
S'+5'
p122
S'+6'
p123
S'+7'
p124
S'+8'
p125
S'+9'
p126
S'+10'
p127
S'+11'
p128
S'+12'
p129
S'+13'
p130
S'+14'
p131
S'+15'
p132
S'+16'
p133
S'+17'
p134
S'+18'
p135
S'+19'
p136
S'+20'
p137
S'+21'
p138
S'+22'
p139
S'+23'
p140
S'+24'
p141
S'+25'
p142
S'+26'
p143
S'+27'
p144
S'+28'
p145
S'+29'
p146
S'+30'
p147
S'+31'
p148
S'+32'
p149
S'+33'
p150
S'+34'
p151
S'+35'
p152
S'+36'
p153
S'+37'
p154
S'+38'
p155
S'+39'
p156
S'+40'
p157
S'+41'
p158
S'+42'
p159
S'+43'
p160
S'+44'
p161
S'+45'
p162
S'+46'
p163
S'+47'
p164
S'+48'
p165
S'+49'
p166
S'+50'
p167
S'+51'
p168
S'+52'
p169
S'+53'
p170
S'+54'
p171
S'+55'
p172
S'+56'
p173
S'+57'
p174
S'+58'
p175
S'+59'
p176
S'+60'
p177
S'+61'
p178
S'+62'
p179
S'+63'
p180
tp181
aS'Osc 1 Detune'
p182
aS'Detune'
p183
aS'Osc 1'
p184
aS'Osc_1_Detune'
p185
aa(lp186
(I40
I88
I1
tp187
a(S'-24'
p188
S'-23'
p189
S'-22'
p190
S'-21'
p191
S'-20'
p192
S'-19'
p193
S'-18'
p194
S'-17'
p195
S'-16'
p196
S'-15'
p197
S'-14'
p198
S'-13'
p199
S'-12'
p200
S'-11'
p201
S'-10'
p202
S'-9'
p203
S'-8'
p204
S'-7'
p205
S'-6'
p206
S'-5'
p207
S'-4'
p208
S'-3'
p209
S'-2'
p210
S'-1'
p211
S'0'
p212
S'+1'
p213
S'+2'
p214
S'+3'
p215
S'+4'
p216
S'+5'
p217
S'+6'
p218
S'+7'
p219
S'+8'
p220
S'+9'
p221
S'+10'
p222
S'+11'
p223
S'+12'
p224
S'+13'
p225
S'+14'
p226
S'+15'
p227
S'+16'
p228
S'+17'
p229
S'+18'
p230
S'+19'
p231
S'+20'
p232
S'+21'
p233
S'+22'
p234
S'+23'
p235
S'+24'
p236
tp237
aS'Osc 1 Bend Range'
p238
aS'Bend Range'
p239
aS'Osc 1'
p240
aS'Osc_1_Bend_Range'
p241
aa(lp242
(I0
I127
I1
tp243
a(S'-200%'
p244
S'-197%'
p245
S'-194%'
p246
S'-191%'
p247
S'-188%'
p248
S'-184%'
p249
S'-181%'
p250
S'-178%'
p251
S'-175%'
p252
S'-172%'
p253
S'-169%'
p254
S'-166%'
p255
S'-163%'
p256
S'-160%'
p257
S'-156%'
p258
S'-153%'
p259
S'-150%'
p260
S'-147%'
p261
S'-144%'
p262
S'-141%'
p263
S'-138%'
p264
S'-135%'
p265
S'-132%'
p266
S'-128%'
p267
S'-125%'
p268
S'-122%'
p269
S'-119%'
p270
S'-116%'
p271
S'-113%'
p272
S'-110%'
p273
S'-107%'
p274
S'-104%'
p275
S'-100%'
p276
S'-97%'
p277
S'-94%'
p278
S'-91%'
p279
S'-88%'
p280
S'-85%'
p281
S'-82%'
p282
S'-79%'
p283
S'-76%'
p284
S'-72%'
p285
S'-69%'
p286
S'-66%'
p287
S'-63%'
p288
S'-60%'
p289
S'-57%'
p290
S'-54%'
p291
S'-51%'
p292
S'-48%'
p293
S'-44%'
p294
S'-41%'
p295
S'-38%'
p296
S'-35%'
p297
S'-32%'
p298
S'-29%'
p299
S'-26%'
p300
S'-23%'
p301
S'-20%'
p302
S'-16%'
p303
S'-13%'
p304
S'-10%'
p305
S'-7%'
p306
S'-4%'
p307
S'+-1%'
p308
S'+3%'
p309
S'+6%'
p310
S'+9%'
p311
S'+13%'
p312
S'+16%'
p313
S'+19%'
p314
S'+22%'
p315
S'+25%'
p316
S'+28%'
p317
S'+31%'
p318
S'+34%'
p319
S'+37%'
p320
S'+41%'
p321
S'+44%'
p322
S'+47%'
p323
S'+50%'
p324
S'+53%'
p325
S'+56%'
p326
S'+59%'
p327
S'+62%'
p328
S'+65%'
p329
S'+69%'
p330
S'+72%'
p331
S'+75%'
p332
S'+78%'
p333
S'+81%'
p334
S'+84%'
p335
S'+87%'
p336
S'+90%'
p337
S'+93%'
p338
S'+97%'
p339
S'+100%'
p340
S'+103%'
p341
S'+106%'
p342
S'+109%'
p343
S'+112%'
p344
S'+115%'
p345
S'+118%'
p346
S'+121%'
p347
S'+125%'
p348
S'+128%'
p349
S'+131%'
p350
S'+134%'
p351
S'+137%'
p352
S'+140%'
p353
S'+143%'
p354
S'+146%'
p355
S'+149%'
p356
S'+153%'
p357
S'+156%'
p358
S'+159%'
p359
S'+162%'
p360
S'+165%'
p361
S'+168%'
p362
S'+171%'
p363
S'+174%'
p364
S'+177%'
p365
S'+181%'
p366
S'+184%'
p367
S'+187%'
p368
S'+190%'
p369
S'+193%'
p370
S'+196%'
p371
tp372
aS'Osc 1 Keytrack'
p373
aS'Keytrack'
p374
aS'Osc 1'
p375
aS'Osc_1_Keytrack'
p376
aa(lp377
(I0
I11
I1
tp378
a(lp379
S'off'
p380
aS'Osc 1'
p381
aS'Osc 2'
p382
aS'Osc 3'
p383
aS'Noise'
p384
aS'LFO 1'
p385
aS'LFO 2'
p386
aS'LFO 3'
p387
aS'FilterEnv'
p388
aS'AmpEnv'
p389
aS'Env3'
p390
aS'Env4'
p391
aaS'Osc 1 FM Source'
p392
aS'FM Source'
p393
aS'Osc 1'
p394
aS'Osc_1_FM_Source'
p395
aa(lp396
(I0
I127
I1
tp397
a(S'0'
p398
S'1'
p399
S'2'
p400
S'3'
p401
S'4'
p402
S'5'
p403
S'6'
p404
S'7'
p405
S'8'
p406
S'9'
p407
S'10'
p408
S'11'
p409
S'12'
p410
S'13'
p411
S'14'
p412
S'15'
p413
S'16'
p414
S'17'
p415
S'18'
p416
S'19'
p417
S'20'
p418
S'21'
p419
S'22'
p420
S'23'
p421
S'24'
p422
S'25'
p423
S'26'
p424
S'27'
p425
S'28'
p426
S'29'
p427
S'30'
p428
S'31'
p429
S'32'
p430
S'33'
p431
S'34'
p432
S'35'
p433
S'36'
p434
S'37'
p435
S'38'
p436
S'39'
p437
S'40'
p438
S'41'
p439
S'42'
p440
S'43'
p441
S'44'
p442
S'45'
p443
S'46'
p444
S'47'
p445
S'48'
p446
S'49'
p447
S'50'
p448
S'51'
p449
S'52'
p450
S'53'
p451
S'54'
p452
S'55'
p453
S'56'
p454
S'57'
p455
S'58'
p456
S'59'
p457
S'60'
p458
S'61'
p459
S'62'
p460
S'63'
p461
S'64'
p462
S'65'
p463
S'66'
p464
S'67'
p465
S'68'
p466
S'69'
p467
S'70'
p468
S'71'
p469
S'72'
p470
S'73'
p471
S'74'
p472
S'75'
p473
S'76'
p474
S'77'
p475
S'78'
p476
S'79'
p477
S'80'
p478
S'81'
p479
S'82'
p480
S'83'
p481
S'84'
p482
S'85'
p483
S'86'
p484
S'87'
p485
S'88'
p486
S'89'
p487
S'90'
p488
S'91'
p489
S'92'
p490
S'93'
p491
S'94'
p492
S'95'
p493
S'96'
p494
S'97'
p495
S'98'
p496
S'99'
p497
S'100'
p498
S'101'
p499
S'102'
p500
S'103'
p501
S'104'
p502
S'105'
p503
S'106'
p504
S'107'
p505
S'108'
p506
S'109'
p507
S'110'
p508
S'111'
p509
S'112'
p510
S'113'
p511
S'114'
p512
S'115'
p513
S'116'
p514
S'117'
p515
S'118'
p516
S'119'
p517
S'120'
p518
S'121'
p519
S'122'
p520
S'123'
p521
S'124'
p522
S'125'
p523
S'126'
p524
S'127'
p525
tp526
aS'Osc 1 FM Amount'
p527
aS'FM Amount'
p528
aS'Osc 1'
p529
aS'Osc_1_FM_Amount'
p530
aa(lp531
(I0
I72
I1
tp532
a(lp533
S'off'
p534
aS'Pulse'
p535
aS'Saw'
p536
aS'Triangle'
p537
aS'Sine'
p538
aS'Alt 1'
p539
aS'Alt 2'
p540
aS'Resonant'
p541
aS'Resonant2'
p542
aS'MalletSyn'
p543
aS'Sqr-Sweep'
p544
aS'Bellish'
p545
aS'Pul-Sweep'
p546
aS'Saw-Sweep'
p547
aS'MellowSaw'
p548
aS'Feedback'
p549
aS'Add Harm'
p550
aS'Reso 3 HP'
p551
aS'Wind Syn'
p552
aS'High Harm'
p553
aS'Clipper'
p554
aS'Organ Syn'
p555
aS'SquareSaw'
p556
aS'Formant 1'
p557
aS'Polated'
p558
aS'Transient'
p559
aS'ElectricP'
p560
aS'Robotic'
p561
aS'StrongHrm'
p562
aS'PercOrgan'
p563
aS'ClipSweep'
p564
aS'ResoHarms'
p565
aS'2 Echoes'
p566
aS'Formant 2'
p567
aS'FmntVocal'
p568
aS'MicroSync'
p569
aS'Micro PWM'
p570
aS'Glassy'
p571
aS'Square HP'
p572
aS'SawSync 1'
p573
aS'SawSync 2'
p574
aS'SawSync 3'
p575
aS'PulSync 1'
p576
aS'PulSync 2'
p577
aS'PulSync 3'
p578
aS'SinSync 1'
p579
aS'SinSync 2'
p580
aS'SinSync 3'
p581
aS'PWM Pulse'
p582
aS'PWM Saw'
p583
aS'Fuzz Wave'
p584
aS'Distorted'
p585
aS'HeavyFuzz'
p586
aS'Fuzz Sync'
p587
aS'K+Strong1'
p588
aS'K+Strong2'
p589
aS'K+Strong3'
p590
aS'1-2-3-4-5'
p591
aS'19/twenty'
p592
aS'Wavetrip1'
p593
aS'Wavetrip2'
p594
aS'Wavetrip3'
p595
aS'Wavetrip4'
p596
aS'MaleVoice'
p597
aS'Low Piano'
p598
aS'ResoSweep'
p599
aS'Xmas Bell'
p600
aS'FM Piano'
p601
aS'Fat Organ'
p602
aS'Vibes'
p603
aS'Chorus 2'
p604
aS'True PWM'
p605
aS'UpperWaves'
p606
aaS'Osc 1 Shape'
p607
aS'Shape'
p608
aS'Osc 1'
p609
aS'Osc_1_Shape'
p610
aa(lp611
(I0
I127
I1
tp612
ag526
aS'Osc 1 Pulsewidth'
p613
aS'Pulsewidth'
p614
aS'Osc 1'
p615
aS'Osc_1_Pulsewidth'
p616
aa(lp617
(I0
I30
I1
tp618
a(lp619
S'off'
p620
aS'LFO 1'
p621
aS'LFO1*MW'
p622
aS'LFO 2'
p623
aS'LFO2*Press'
p624
aS'LFO 3'
p625
aS'FilterEnv'
p626
aS'AmpEnv'
p627
aS'Env3'
p628
aS'Env4'
p629
aS'Keytrack'
p630
aS'Velocity'
p631
aS'Rel. Velo'
p632
aS'Pressure'
p633
aS'Poly Press'
p634
aS'Pitch Bend'
p635
aS'Mod Wheel'
p636
aS'Sustain'
p637
aS'Foot Ctrl'
p638
aS'BreathCtrl'
p639
aS'Control W'
p640
aS'Control X'
p641
aS'Control Y'
p642
aS'Control Z'
p643
aS'Unisono V.'
p644
aS'Modifier 1'
p645
aS'Modifier 2'
p646
aS'Modifier 3'
p647
aS'Modifier 4'
p648
aS'minimum'
p649
aS'MAXIMUM'
p650
aaS'Osc 1 PWM Source'
p651
aS'PWM Source'
p652
aS'Osc 1'
p653
aS'Osc_1_PWM_Source'
p654
aa(lp655
(I0
I127
I1
tp656
ag181
aS'Osc 1 PWM Amount'
p657
aS'PWM Amount'
p658
aS'Osc 1'
p659
aS'Osc_1_PWM_Amount'
p660
aag2
ag2
a(lp661
(I0
I1
I1
tp662
a(S'on'
p663
S'off'
p664
tp665
aS'Osc 1 Limit WT'
p666
aS'Limit WT'
p667
aS'Osc 1'
p668
aS'Osc_1_Limit_WT'
p669
aag2
a(lp670
(I0
I127
I1
tp671
ag526
aS'Osc 1 Brilliance'
p672
aS'Brilliance'
p673
aS'Osc 1'
p674
aS'Osc_1_Brilliance'
p675
aa(lp676
(I16
I112
I12
tp677
ag14
aS'Osc 2 Octave'
p678
aS'Octave'
p679
aS'Osc 2'
p680
aS'Osc_2_Octave'
p681
aa(lp682
(I52
I76
I1
tp683
ag46
aS'Osc 2 Semitone'
p684
aS'Semitone'
p685
aS'Osc 2'
p686
aS'Osc_2_Semitone'
p687
aa(lp688
(I0
I127
I1
tp689
ag181
aS'Osc 2 Detune'
p690
aS'Detune'
p691
aS'Osc 2'
p692
aS'Osc_2_Detune'
p693
aa(lp694
(I40
I88
I1
tp695
ag237
aS'Osc 2 Bend Range'
p696
aS'Bend Range'
p697
aS'Osc 2'
p698
aS'Osc_2_Bend_Range'
p699
aa(lp700
(I0
I127
I1
tp701
ag372
aS'Osc 2 Keytrack'
p702
aS'Keytrack'
p703
aS'Osc 2'
p704
aS'Osc_2_Keytrack'
p705
aa(lp706
(I0
I11
I1
tp707
ag379
aS'Osc 2 FM Source'
p708
aS'FM Source'
p709
aS'Osc 2'
p710
aS'Osc_2_FM_Source'
p711
aa(lp712
(I0
I127
I1
tp713
ag526
aS'Osc 2 FM Amount'
p714
aS'FM Amount'
p715
aS'Osc 2'
p716
aS'Osc_2_FM_Amount'
p717
aa(lp718
(I0
I72
I1
tp719
ag533
aS'Osc 2 Shape'
p720
aS'Shape'
p721
aS'Osc 2'
p722
aS'Osc_2_Shape'
p723
aa(lp724
(I0
I127
I1
tp725
ag526
aS'Osc 2 Pulsewidth'
p726
aS'Pulsewidth'
p727
aS'Osc 2'
p728
aS'Osc_2_Pulsewidth'
p729
aa(lp730
(I0
I30
I1
tp731
ag619
aS'Osc 2 PWM Source'
p732
aS'PWM Source'
p733
aS'Osc 2'
p734
aS'Osc_2_PWM_Source'
p735
aa(lp736
(I0
I127
I1
tp737
ag181
aS'Osc 2 PWM Amount'
p738
aS'PWM Amount'
p739
aS'Osc 2'
p740
aS'Osc_2_PWM_Amount'
p741
aag2
ag2
a(lp742
(I0
I1
I1
tp743
ag665
aS'Osc 2 Limit WT'
p744
aS'Limit WT'
p745
aS'Osc 2'
p746
aS'Osc_2_Limit_WT'
p747
aag2
a(lp748
(I0
I127
I1
tp749
ag526
aS'Osc 2 Brilliance'
p750
aS'Brilliance'
p751
aS'Osc 2'
p752
aS'Osc_2_Brilliance'
p753
aa(lp754
(I16
I112
I12
tp755
ag14
aS'Osc 3 Octave'
p756
aS'Octave'
p757
aS'Osc 3'
p758
aS'Osc_3_Octave'
p759
aa(lp760
(I52
I76
I1
tp761
ag46
aS'Osc 3 Semitone'
p762
aS'Semitone'
p763
aS'Osc 3'
p764
aS'Osc_3_Semitone'
p765
aa(lp766
(I0
I127
I1
tp767
ag181
aS'Osc 3 Detune'
p768
aS'Detune'
p769
aS'Osc 3'
p770
aS'Osc_3_Detune'
p771
aa(lp772
(I40
I88
I1
tp773
ag237
aS'Osc 3 Bend Range'
p774
aS'Bend Range'
p775
aS'Osc 3'
p776
aS'Osc_3_Bend_Range'
p777
aa(lp778
(I0
I127
I1
tp779
ag372
aS'Osc 3 Keytrack'
p780
aS'Keytrack'
p781
aS'Osc 3'
p782
aS'Osc_3_Keytrack'
p783
aa(lp784
(I0
I11
I1
tp785
ag379
aS'Osc 3 FM Source'
p786
aS'FM Source'
p787
aS'Osc 3'
p788
aS'Osc_3_FM_Source'
p789
aa(lp790
(I0
I127
I1
tp791
ag526
aS'Osc 3 FM Amount'
p792
aS'FM Amount'
p793
aS'Osc 3'
p794
aS'Osc_3_FM_Amount'
p795
aa(lp796
(I0
I4
I1
tp797
a(lp798
g534
ag535
ag536
ag537
ag538
aaS'Osc 3 Shape'
p799
aS'Shape'
p800
aS'Osc 3'
p801
aS'Osc_3_Shape'
p802
aa(lp803
(I0
I127
I1
tp804
ag526
aS'Osc 3 Pulsewidth'
p805
aS'Pulsewidth'
p806
aS'Osc 3'
p807
aS'Osc_3_Pulsewidth'
p808
aa(lp809
(I0
I30
I1
tp810
ag619
aS'Osc 3 PWM Source'
p811
aS'PWM Source'
p812
aS'Osc 3'
p813
aS'Osc_3_PWM_Source'
p814
aa(lp815
(I0
I127
I1
tp816
ag181
aS'Osc 3 PWM Amount'
p817
aS'PWM Amount'
p818
aS'Osc 3'
p819
aS'Osc_3_PWM_Amount'
p820
aag2
ag2
ag2
ag2
a(lp821
(I0
I127
I1
tp822
ag526
aS'Osc 3 Brilliance'
p823
aS'Brilliance'
p824
aS'Osc 3'
p825
aS'Osc_3_Brilliance'
p826
aa(lp827
(I0
I1
I1
tp828
a(g664
g663
tp829
aS'Osc 2 Sync to O3'
p830
aS'Sync to O3'
p831
aS'Osc 2'
p832
aS'Osc_2_Sync_to_O3'
p833
aa(lp834
(I0
I30
I1
tp835
ag619
aS'Osc Pitch Source'
p836
aS'Source'
p837
aS'Osc Pitch'
p838
aS'Osc_Pitch_Source'
p839
aa(lp840
(I0
I127
I1
tp841
ag181
aS'Osc Pitch Amount'
p842
aS'Amount'
p843
aS'Osc Pitch'
p844
aS'Osc_Pitch_Amount'
p845
aag2
a(lp846
(I0
I1
I1
tp847
ag829
aS'Glide'
p848
ag848
aS''
p849
ag848
aag2
ag2
a(lp850
(I0
I3
I1
tp851
a(lp852
S'Portamento'
p853
aS'fingered P'
p854
aS'Glissando'
p855
aS'fingered G'
p856
aaS'Glide Mode'
p857
aS'Mode'
p858
aS'Glide'
p859
aS'Glide_Mode'
p860
aa(lp861
(I0
I127
I1
tp862
ag526
aS'Glide Rate'
p863
aS'Rate'
p864
aS'Glide'
p865
aS'Glide_Rate'
p866
aa(lp867
(I0
I127
I1
tp868
ag526
aS'Allocation Mode and Unisono'
p869
ag869
ag849
aS'Allocation_Mode_and_Unisono'
p870
aa(lp871
(I0
I127
I1
tp872
ag526
aS'Unisono Uni Detune'
p873
ag873
ag849
aS'Unisono_Uni_Detune'
p874
aag2
a(lp875
(I0
I127
I1
tp876
ag526
aS'Mixer Osc 1 Level'
p877
aS'Level'
p878
aS'Mixer Osc 1'
p879
aS'Mixer_Osc_1_Level'
p880
aa(lp881
(I0
I127
I1
tp882
a(S'F1 64'
p883
S'F1 63'
p884
S'F1 62'
p885
S'F1 61'
p886
S'F1 60'
p887
S'F1 59'
p888
S'F1 58'
p889
S'F1 57'
p890
S'F1 56'
p891
S'F1 55'
p892
S'F1 54'
p893
S'F1 53'
p894
S'F1 52'
p895
S'F1 51'
p896
S'F1 50'
p897
S'F1 49'
p898
S'F1 48'
p899
S'F1 47'
p900
S'F1 46'
p901
S'F1 45'
p902
S'F1 44'
p903
S'F1 43'
p904
S'F1 42'
p905
S'F1 41'
p906
S'F1 40'
p907
S'F1 39'
p908
S'F1 38'
p909
S'F1 37'
p910
S'F1 36'
p911
S'F1 35'
p912
S'F1 34'
p913
S'F1 33'
p914
S'F1 32'
p915
S'F1 31'
p916
S'F1 30'
p917
S'F1 29'
p918
S'F1 28'
p919
S'F1 27'
p920
S'F1 26'
p921
S'F1 25'
p922
S'F1 24'
p923
S'F1 23'
p924
S'F1 22'
p925
S'F1 21'
p926
S'F1 20'
p927
S'F1 19'
p928
S'F1 18'
p929
S'F1 17'
p930
S'F1 16'
p931
S'F1 15'
p932
S'F1 14'
p933
S'F1 13'
p934
S'F1 12'
p935
S'F1 11'
p936
S'F1 10'
p937
S'F1 9'
p938
S'F1 8'
p939
S'F1 7'
p940
S'F1 6'
p941
S'F1 5'
p942
S'F1 4'
p943
S'F1 3'
p944
S'F1 2'
p945
S'F1 1'
p946
S'middle'
p947
S'F2 1'
p948
S'F2 2'
p949
S'F2 3'
p950
S'F2 4'
p951
S'F2 5'
p952
S'F2 6'
p953
S'F2 7'
p954
S'F2 8'
p955
S'F2 9'
p956
S'F2 10'
p957
S'F2 11'
p958
S'F2 12'
p959
S'F2 13'
p960
S'F2 14'
p961
S'F2 15'
p962
S'F2 16'
p963
S'F2 17'
p964
S'F2 18'
p965
S'F2 19'
p966
S'F2 20'
p967
S'F2 21'
p968
S'F2 22'
p969
S'F2 23'
p970
S'F2 24'
p971
S'F2 25'
p972
S'F2 26'
p973
S'F2 27'
p974
S'F2 28'
p975
S'F2 29'
p976
S'F2 30'
p977
S'F2 31'
p978
S'F2 32'
p979
S'F2 33'
p980
S'F2 34'
p981
S'F2 35'
p982
S'F2 36'
p983
S'F2 37'
p984
S'F2 38'
p985
S'F2 39'
p986
S'F2 40'
p987
S'F2 41'
p988
S'F2 42'
p989
S'F2 43'
p990
S'F2 44'
p991
S'F2 45'
p992
S'F2 46'
p993
S'F2 47'
p994
S'F2 48'
p995
S'F2 49'
p996
S'F2 50'
p997
S'F2 51'
p998
S'F2 52'
p999
S'F2 53'
p1000
S'F2 54'
p1001
S'F2 55'
p1002
S'F2 56'
p1003
S'F2 57'
p1004
S'F2 58'
p1005
S'F2 59'
p1006
S'F2 60'
p1007
S'F2 61'
p1008
S'F2 62'
p1009
S'F2 63'
p1010
tp1011
aS'Mixer Osc 1 Balance'
p1012
aS'Balance'
p1013
aS'Mixer Osc 1'
p1014
aS'Mixer_Osc_1_Balance'
p1015
aa(lp1016
(I0
I127
I1
tp1017
ag526
aS'Mixer Osc 2 Level'
p1018
aS'Level'
p1019
aS'Mixer Osc 2'
p1020
aS'Mixer_Osc_2_Level'
p1021
aa(lp1022
(I0
I127
I1
tp1023
ag1011
aS'Mixer Osc 2 Balance'
p1024
aS'Balance'
p1025
aS'Mixer Osc 2'
p1026
aS'Mixer_Osc_2_Balance'
p1027
aa(lp1028
(I0
I127
I1
tp1029
ag526
aS'Mixer Osc 3 Level'
p1030
aS'Level'
p1031
aS'Mixer Osc 3'
p1032
aS'Mixer_Osc_3_Level'
p1033
aa(lp1034
(I0
I127
I1
tp1035
ag1011
aS'Mixer Osc 3 Balance'
p1036
aS'Balance'
p1037
aS'Mixer Osc 3'
p1038
aS'Mixer_Osc_3_Balance'
p1039
aa(lp1040
(I0
I127
I1
tp1041
ag526
aS'Mixer Noise Level'
p1042
aS'Level'
p1043
aS'Mixer Noise'
p1044
aS'Mixer_Noise_Level'
p1045
aa(lp1046
(I0
I127
I1
tp1047
ag1011
aS'Mixer Noise Balance'
p1048
aS'Balance'
p1049
aS'Mixer Noise'
p1050
aS'Mixer_Noise_Balance'
p1051
aa(lp1052
(I0
I127
I1
tp1053
ag181
aS'Mixer Noise Colour'
p1054
aS'Colour'
p1055
aS'Mixer Noise'
p1056
aS'Mixer_Noise_Colour'
p1057
aag2
a(lp1058
(I0
I127
I1
tp1059
ag526
aS'Mixer RingMod Level'
p1060
aS'Level'
p1061
aS'Mixer RingMod'
p1062
aS'Mixer_RingMod_Level'
p1063
aa(lp1064
(I0
I127
I1
tp1065
ag1011
aS'Mixer RingMod Balance'
p1066
aS'Balance'
p1067
aS'Mixer RingMod'
p1068
aS'Mixer_RingMod_Balance'
p1069
aag2
ag2
ag2
ag2
a(lp1070
(I0
I11
I1
tp1071
a(lp1072
S'Bypass'
p1073
aS'LP 24dB'
p1074
aS'LP 12dB'
p1075
aS'BP 24dB'
p1076
aS'BP 12dB'
p1077
aS'HP 24dB'
p1078
aS'HP 12dB'
p1079
aS'Notch24dB'
p1080
aS'Notch12dB'
p1081
aS'Comb+'
p1082
aS'Comb-'
p1083
aS'PPG LP'
p1084
aaS'Filter 1 Type'
p1085
aS'Type'
p1086
aS'Filter 1'
p1087
aS'Filter_1_Type'
p1088
aa(lp1089
(I0
I127
I1
tp1090
ag526
aS'Filter 1 Cutoff'
p1091
aS'Cutoff'
p1092
aS'Filter 1'
p1093
aS'Filter_1_Cutoff'
p1094
aag2
a(lp1095
(I0
I127
I1
tp1096
ag526
aS'Filter 1 Resonance'
p1097
aS'Resonance'
p1098
aS'Filter 1'
p1099
aS'Filter_1_Resonance'
p1100
aa(lp1101
(I0
I127
I1
tp1102
ag526
aS'Filter 1 Drive'
p1103
aS'Drive'
p1104
aS'Filter 1'
p1105
aS'Filter_1_Drive'
p1106
aa(lp1107
(I0
I12
I1
tp1108
a(lp1109
S'Clipping'
p1110
aS'Tube'
p1111
aS'Hard'
p1112
aS'Medium'
p1113
aS'Soft'
p1114
aS'Pickup 1'
p1115
aS'Pickup 2'
p1116
aS'Rectifier'
p1117
aS'Square'
p1118
aS'Binary'
p1119
aS'Overflow'
p1120
aS'Sine Shaper'
p1121
aS'Osc 1 Mod'
p1122
aaS'Filter 1 Drive Curve'
p1123
aS'Drive Curve'
p1124
aS'Filter 1'
p1125
aS'Filter_1_Drive_Curve'
p1126
aag2
ag2
ag2
a(lp1127
(I0
I127
I1
tp1128
ag372
aS'Filter 1 Keytrack'
p1129
aS'Keytrack'
p1130
aS'Filter 1'
p1131
aS'Filter_1_Keytrack'
p1132
aa(lp1133
(I0
I127
I1
tp1134
ag181
aS'Filter 1 Env Amount'
p1135
aS'Env Amount'
p1136
aS'Filter 1'
p1137
aS'Filter_1_Env_Amount'
p1138
aa(lp1139
(I0
I127
I1
tp1140
ag181
aS'Filter 1 Env Velocity'
p1141
aS'Env Velocity'
p1142
aS'Filter 1'
p1143
aS'Filter_1_Env_Velocity'
p1144
aa(lp1145
(I0
I30
I1
tp1146
ag619
aS'Filter 1 Mod Source'
p1147
aS'Mod Source'
p1148
aS'Filter 1'
p1149
aS'Filter_1_Mod_Source'
p1150
aa(lp1151
(I0
I127
I1
tp1152
ag181
aS'Filter 1 Mod Amount'
p1153
aS'Mod Amount'
p1154
aS'Filter 1'
p1155
aS'Filter_1_Mod_Amount'
p1156
aa(lp1157
(I0
I11
I1
tp1158
ag379
aS'Filter 1 FM Source'
p1159
aS'FM Source'
p1160
aS'Filter 1'
p1161
aS'Filter_1_FM_Source'
p1162
aa(lp1163
(I0
I127
I1
tp1164
ag379
aS'Filter 1 FM Amount'
p1165
aS'FM Amount'
p1166
aS'Filter 1'
p1167
aS'Filter_1_FM_Amount'
p1168
aa(lp1169
(I0
I127
I1
tp1170
a(S'left 64'
p1171
S'left 63'
p1172
S'left 62'
p1173
S'left 61'
p1174
S'left 60'
p1175
S'left 59'
p1176
S'left 58'
p1177
S'left 57'
p1178
S'left 56'
p1179
S'left 55'
p1180
S'left 54'
p1181
S'left 53'
p1182
S'left 52'
p1183
S'left 51'
p1184
S'left 50'
p1185
S'left 49'
p1186
S'left 48'
p1187
S'left 47'
p1188
S'left 46'
p1189
S'left 45'
p1190
S'left 44'
p1191
S'left 43'
p1192
S'left 42'
p1193
S'left 41'
p1194
S'left 40'
p1195
S'left 39'
p1196
S'left 38'
p1197
S'left 37'
p1198
S'left 36'
p1199
S'left 35'
p1200
S'left 34'
p1201
S'left 33'
p1202
S'left 32'
p1203
S'left 31'
p1204
S'left 30'
p1205
S'left 29'
p1206
S'left 28'
p1207
S'left 27'
p1208
S'left 26'
p1209
S'left 25'
p1210
S'left 24'
p1211
S'left 23'
p1212
S'left 22'
p1213
S'left 21'
p1214
S'left 20'
p1215
S'left 19'
p1216
S'left 18'
p1217
S'left 17'
p1218
S'left 16'
p1219
S'left 15'
p1220
S'left 14'
p1221
S'left 13'
p1222
S'left 12'
p1223
S'left 11'
p1224
S'left 10'
p1225
S'left 9'
p1226
S'left 8'
p1227
S'left 7'
p1228
S'left 6'
p1229
S'left 5'
p1230
S'left 4'
p1231
S'left 3'
p1232
S'left 2'
p1233
S'left 1'
p1234
S'center'
p1235
S'right 1'
p1236
S'right 2'
p1237
S'right 3'
p1238
S'right 4'
p1239
S'right 5'
p1240
S'right 6'
p1241
S'right 7'
p1242
S'right 8'
p1243
S'right 9'
p1244
S'right 10'
p1245
S'right 11'
p1246
S'right 12'
p1247
S'right 13'
p1248
S'right 14'
p1249
S'right 15'
p1250
S'right 16'
p1251
S'right 17'
p1252
S'right 18'
p1253
S'right 19'
p1254
S'right 20'
p1255
S'right 21'
p1256
S'right 22'
p1257
S'right 23'
p1258
S'right 24'
p1259
S'right 25'
p1260
S'right 26'
p1261
S'right 27'
p1262
S'right 28'
p1263
S'right 29'
p1264
S'right 30'
p1265
S'right 31'
p1266
S'right 32'
p1267
S'right 33'
p1268
S'right 34'
p1269
S'right 35'
p1270
S'right 36'
p1271
S'right 37'
p1272
S'right 38'
p1273
S'right 39'
p1274
S'right 40'
p1275
S'right 41'
p1276
S'right 42'
p1277
S'right 43'
p1278
S'right 44'
p1279
S'right 45'
p1280
S'right 46'
p1281
S'right 47'
p1282
S'right 48'
p1283
S'right 49'
p1284
S'right 50'
p1285
S'right 51'
p1286
S'right 52'
p1287
S'right 53'
p1288
S'right 54'
p1289
S'right 55'
p1290
S'right 56'
p1291
S'right 57'
p1292
S'right 58'
p1293
S'right 59'
p1294
S'right 60'
p1295
S'right 61'
p1296
S'right 62'
p1297
S'right 63'
p1298
tp1299
aS'Filter 1 Pan'
p1300
aS'Pan'
p1301
aS'Filter 1'
p1302
aS'Filter_1_Pan'
p1303
aa(lp1304
(I0
I30
I1
tp1305
ag619
aS'Filter 1 Pan Source'
p1306
aS'Pan Source'
p1307
aS'Filter 1'
p1308
aS'Filter_1_Pan_Source'
p1309
aa(lp1310
(I0
I127
I1
tp1311
ag181
aS'Filter 1 Pan Amount'
p1312
aS'Pan Amount'
p1313
aS'Filter 1'
p1314
aS'Filter_1_Pan_Amount'
p1315
aag2
a(lp1316
(I0
I11
I1
tp1317
ag1072
aS'Filter 2 Type'
p1318
aS'Type'
p1319
aS'Filter 2'
p1320
aS'Filter_2_Type'
p1321
aa(lp1322
(I0
I127
I1
tp1323
ag526
aS'Filter 2 Cutoff'
p1324
aS'Cutoff'
p1325
aS'Filter 2'
p1326
aS'Filter_2_Cutoff'
p1327
aag2
a(lp1328
(I0
I127
I1
tp1329
ag526
aS'Filter 2 Resonance'
p1330
aS'Resonance'
p1331
aS'Filter 2'
p1332
aS'Filter_2_Resonance'
p1333
aa(lp1334
(I0
I127
I1
tp1335
ag526
aS'Filter 2 Drive'
p1336
aS'Drive'
p1337
aS'Filter 2'
p1338
aS'Filter_2_Drive'
p1339
aa(lp1340
(I0
I12
I1
tp1341
ag1109
aS'Filter 2 Drive Curve'
p1342
aS'Drive Curve'
p1343
aS'Filter 2'
p1344
aS'Filter_2_Drive_Curve'
p1345
aag2
ag2
ag2
a(lp1346
(I0
I127
I1
tp1347
ag372
aS'Filter 2 Keytrack'
p1348
aS'Keytrack'
p1349
aS'Filter 2'
p1350
aS'Filter_2_Keytrack'
p1351
aa(lp1352
(I0
I127
I1
tp1353
ag181
aS'Filter 2 Env Amount'
p1354
aS'Env Amount'
p1355
aS'Filter 2'
p1356
aS'Filter_2_Env_Amount'
p1357
aa(lp1358
(I0
I127
I1
tp1359
ag181
aS'Filter 2 Env Velocity'
p1360
aS'Env Velocity'
p1361
aS'Filter 2'
p1362
aS'Filter_2_Env_Velocity'
p1363
aa(lp1364
(I0
I30
I1
tp1365
ag619
aS'Filter 2 Mod Source'
p1366
aS'Mod Source'
p1367
aS'Filter 2'
p1368
aS'Filter_2_Mod_Source'
p1369
aa(lp1370
(I0
I127
I1
tp1371
ag181
aS'Filter 2 Mod Amount'
p1372
aS'Mod Amount'
p1373
aS'Filter 2'
p1374
aS'Filter_2_Mod_Amount'
p1375
aa(lp1376
(I0
I11
I1
tp1377
ag379
aS'Filter 2 FM Source'
p1378
aS'FM Source'
p1379
aS'Filter 2'
p1380
aS'Filter_2_FM_Source'
p1381
aa(lp1382
(I0
I127
I1
tp1383
ag379
aS'Filter 2 FM Amount'
p1384
aS'FM Amount'
p1385
aS'Filter 2'
p1386
aS'Filter_2_FM_Amount'
p1387
aa(lp1388
(I0
I127
I1
tp1389
ag1299
aS'Filter 2 Pan'
p1390
aS'Pan'
p1391
aS'Filter 2'
p1392
aS'Filter_2_Pan'
p1393
aa(lp1394
(I0
I30
I1
tp1395
ag619
aS'Filter 2 Pan Source'
p1396
aS'Pan Source'
p1397
aS'Filter 2'
p1398
aS'Filter_2_Pan_Source'
p1399
aa(lp1400
(I0
I127
I1
tp1401
ag181
aS'Filter 2 Pan Amount'
p1402
aS'Pan Amount'
p1403
aS'Filter 2'
p1404
aS'Filter_2_Pan_Amount'
p1405
aag2
a(lp1406
(I0
I1
I1
tp1407
a(S'parallel'
p1408
S'serial'
p1409
tp1410
aS'Filter Routing'
p1411
aS'Routing'
p1412
aS'Filter'
p1413
aS'Filter_Routing'
p1414
aag2
ag2
ag2
a(lp1415
(I0
I127
I1
tp1416
ag526
aS'Amplifier Volume'
p1417
aS'Volume'
p1418
aS'Amplifier'
p1419
aS'Amplifier_Volume'
p1420
aa(lp1421
(I0
I127
I1
tp1422
ag181
aS'Amplifier Velocity'
p1423
aS'Velocity'
p1424
aS'Amplifier'
p1425
aS'Amplifier_Velocity'
p1426
aa(lp1427
(I0
I30
I1
tp1428
ag619
aS'Amplifier Mod Source'
p1429
aS'Source'
p1430
aS'Amplifier Mod'
p1431
aS'Amplifier_Mod_Source'
p1432
aa(lp1433
(I0
I127
I1
tp1434
ag181
aS'Amplifier Mod Amount'
p1435
aS'Amount'
p1436
aS'Amplifier Mod'
p1437
aS'Amplifier_Mod_Amount'
p1438
aag2
ag2
ag2
a(lp1439
(I0
I127
I1
tp1440
a(lp1441
S'Bypass'
p1442
aS'Chorus'
p1443
aS'Flanger'
p1444
aS'Phaser'
p1445
aS'Overdrive'
p1446
aS'Triple FX'
p1447
aaS'Effect 1 Type'
p1448
aS'Type'
p1449
aS'Effect 1'
p1450
aS'Effect_1_Type'
p1451
aa(lp1452
(I0
I127
I1
tp1453
ag526
aS'Effect 1 Mix'
p1454
aS'Mix'
p1455
aS'Effect 1'
p1456
aS'Effect_1_Mix'
p1457
aa(lp1458
(I0
I127
I1
tp1459
ag526
aS'Effect 1 Parameter 1'
p1460
aS'Parameter 1'
p1461
aS'Effect 1'
p1462
aS'Effect_1_Parameter_1'
p1463
aa(lp1464
(I0
I127
I1
tp1465
ag526
aS'Effect 1 Parameter 2'
p1466
aS'Parameter 2'
p1467
aS'Effect 1'
p1468
aS'Effect_1_Parameter_2'
p1469
aa(lp1470
(I0
I127
I1
tp1471
ag526
aS'Effect 1 Parameter 3'
p1472
aS'Parameter 3'
p1473
aS'Effect 1'
p1474
aS'Effect_1_Parameter_3'
p1475
aa(lp1476
(I0
I127
I1
tp1477
ag526
aS'Effect 1 Parameter 4'
p1478
aS'Parameter 4'
p1479
aS'Effect 1'
p1480
aS'Effect_1_Parameter_4'
p1481
aa(lp1482
(I0
I127
I1
tp1483
ag526
aS'Effect 1 Parameter 5'
p1484
aS'Parameter 5'
p1485
aS'Effect 1'
p1486
aS'Effect_1_Parameter_5'
p1487
aa(lp1488
(I0
I127
I1
tp1489
ag526
aS'Effect 1 Parameter 6'
p1490
aS'Parameter 6'
p1491
aS'Effect 1'
p1492
aS'Effect_1_Parameter_6'
p1493
aa(lp1494
(I0
I127
I1
tp1495
ag526
aS'Effect 1 Parameter 7'
p1496
aS'Parameter 7'
p1497
aS'Effect 1'
p1498
aS'Effect_1_Parameter_7'
p1499
aa(lp1500
(I0
I127
I1
tp1501
ag526
aS'Effect 1 Parameter 8'
p1502
aS'Parameter 8'
p1503
aS'Effect 1'
p1504
aS'Effect_1_Parameter_8'
p1505
aa(lp1506
(I0
I127
I1
tp1507
ag526
aS'Effect 1 Parameter 9'
p1508
aS'Parameter 9'
p1509
aS'Effect 1'
p1510
aS'Effect_1_Parameter_9'
p1511
aa(lp1512
(I0
I127
I1
tp1513
ag526
aS'Effect 1 Parameter 10'
p1514
aS'Parameter 10'
p1515
aS'Effect 1'
p1516
aS'Effect_1_Parameter_10'
p1517
aa(lp1518
(I0
I127
I1
tp1519
ag526
aS'Effect 1 Parameter 11'
p1520
aS'Parameter 11'
p1521
aS'Effect 1'
p1522
aS'Effect_1_Parameter_11'
p1523
aa(lp1524
(I0
I127
I1
tp1525
ag526
aS'Effect 1 Parameter 12'
p1526
aS'Parameter 12'
p1527
aS'Effect 1'
p1528
aS'Effect_1_Parameter_12'
p1529
aa(lp1530
(I0
I127
I1
tp1531
ag526
aS'Effect 1 Parameter 13'
p1532
aS'Parameter 13'
p1533
aS'Effect 1'
p1534
aS'Effect_1_Parameter_13'
p1535
aa(lp1536
(I0
I127
I1
tp1537
ag526
aS'Effect 1 Parameter 14'
p1538
aS'Parameter 14'
p1539
aS'Effect 1'
p1540
aS'Effect_1_Parameter_14'
p1541
aa(lp1542
(I0
I127
I1
tp1543
a(lp1544
g1442
ag1443
ag1444
ag1445
ag1446
ag1447
aS'Delay'
p1545
aS'Clk.Delay'
p1546
aS'Reverb'
p1547
aaS'Effect 2 Type'
p1548
aS'Type'
p1549
aS'Effect 2'
p1550
aS'Effect_2_Type'
p1551
aa(lp1552
(I0
I127
I1
tp1553
ag526
aS'Effect 2 Mix'
p1554
aS'Mix'
p1555
aS'Effect 2'
p1556
aS'Effect_2_Mix'
p1557
aa(lp1558
(I0
I127
I1
tp1559
ag526
aS'Effect 2 Parameter 1'
p1560
aS'Parameter 1'
p1561
aS'Effect 2'
p1562
aS'Effect_2_Parameter_1'
p1563
aa(lp1564
(I0
I127
I1
tp1565
ag526
aS'Effect 2 Parameter 2'
p1566
aS'Parameter 2'
p1567
aS'Effect 2'
p1568
aS'Effect_2_Parameter_2'
p1569
aa(lp1570
(I0
I127
I1
tp1571
ag526
aS'Effect 2 Parameter 3'
p1572
aS'Parameter 3'
p1573
aS'Effect 2'
p1574
aS'Effect_2_Parameter_3'
p1575
aa(lp1576
(I0
I127
I1
tp1577
ag526
aS'Effect 2 Parameter 4'
p1578
aS'Parameter 4'
p1579
aS'Effect 2'
p1580
aS'Effect_2_Parameter_4'
p1581
aa(lp1582
(I0
I127
I1
tp1583
ag526
aS'Effect 2 Parameter 5'
p1584
aS'Parameter 5'
p1585
aS'Effect 2'
p1586
aS'Effect_2_Parameter_5'
p1587
aa(lp1588
(I0
I127
I1
tp1589
ag526
aS'Effect 2 Parameter 6'
p1590
aS'Parameter 6'
p1591
aS'Effect 2'
p1592
aS'Effect_2_Parameter_6'
p1593
aa(lp1594
(I0
I127
I1
tp1595
ag526
aS'Effect 2 Parameter 7'
p1596
aS'Parameter 7'
p1597
aS'Effect 2'
p1598
aS'Effect_2_Parameter_7'
p1599
aa(lp1600
(I0
I127
I1
tp1601
ag526
aS'Effect 2 Parameter 8'
p1602
aS'Parameter 8'
p1603
aS'Effect 2'
p1604
aS'Effect_2_Parameter_8'
p1605
aa(lp1606
(I0
I127
I1
tp1607
ag526
aS'Effect 2 Parameter 9'
p1608
aS'Parameter 9'
p1609
aS'Effect 2'
p1610
aS'Effect_2_Parameter_9'
p1611
aa(lp1612
(I0
I127
I1
tp1613
ag526
aS'Effect 2 Parameter 10'
p1614
aS'Parameter 10'
p1615
aS'Effect 2'
p1616
aS'Effect_2_Parameter_10'
p1617
aa(lp1618
(I0
I127
I1
tp1619
ag526
aS'Effect 2 Parameter 11'
p1620
aS'Parameter 11'
p1621
aS'Effect 2'
p1622
aS'Effect_2_Parameter_11'
p1623
aa(lp1624
(I0
I127
I1
tp1625
ag526
aS'Effect 2 Parameter 12'
p1626
aS'Parameter 12'
p1627
aS'Effect 2'
p1628
aS'Effect_2_Parameter_12'
p1629
aa(lp1630
(I0
I127
I1
tp1631
ag526
aS'Effect 2 Parameter 13'
p1632
aS'Parameter 13'
p1633
aS'Effect 2'
p1634
aS'Effect_2_Parameter_13'
p1635
aa(lp1636
(I0
I127
I1
tp1637
ag526
aS'Effect 2 Parameter 14'
p1638
aS'Parameter 14'
p1639
aS'Effect 2'
p1640
aS'Effect_2_Parameter_14'
p1641
aa(lp1642
(I0
I5
I1
tp1643
a(lp1644
S'Sine'
p1645
aS'Triangle'
p1646
aS'Square'
p1647
aS'Saw'
p1648
aS'Random'
p1649
aS'S&H'
p1650
aaS'LFO 1 Shape'
p1651
aS'Shape'
p1652
aS'LFO 1'
p1653
aS'LFO_1_Shape'
p1654
aa(lp1655
(I0
I127
I1
tp1656
a(lp1657
S'1280 bars'
p1658
aS'1280 bars'
p1659
aS'1152 bars'
p1660
aS'1152 bars'
p1661
aS'1024 bars'
p1662
aS'1024 bars'
p1663
aS'896 bars'
p1664
aS'896 bars'
p1665
aS'768 bars'
p1666
aS'768 bars'
p1667
aS'640 bars'
p1668
aS'640 bars'
p1669
aS'576 bars'
p1670
aS'576 bars'
p1671
aS'512 bars'
p1672
aS'512 bars'
p1673
aS'448 bars'
p1674
aS'448 bars'
p1675
aS'384 bars'
p1676
aS'384 bars'
p1677
aS'320 bars'
p1678
aS'320 bars'
p1679
aS'288 bars'
p1680
aS'288 bars'
p1681
aS'256 bars'
p1682
aS'256 bars'
p1683
aS'224 bars'
p1684
aS'224 bars'
p1685
aS'192 bars'
p1686
aS'192 bars'
p1687
aS'160 bars'
p1688
aS'160 bars'
p1689
aS'144 bars'
p1690
aS'144 bars'
p1691
aS'128 bars'
p1692
aS'128 bars'
p1693
aS'112 bars'
p1694
aS'112 bars'
p1695
aS'96 bars'
p1696
aS'96 bars'
p1697
aS'80 bars'
p1698
aS'80 bars'
p1699
aS'72 bars'
p1700
aS'72 bars'
p1701
aS'64 bars'
p1702
aS'64 bars'
p1703
aS'56 bars'
p1704
aS'56 bars'
p1705
aS'48 bars'
p1706
aS'48 bars'
p1707
aS'40 bars'
p1708
aS'40 bars'
p1709
aS'36 bars'
p1710
aS'36 bars'
p1711
aS'32 bars'
p1712
aS'32 bars'
p1713
aS'28 bars'
p1714
aS'28 bars'
p1715
aS'24 bars'
p1716
aS'24 bars'
p1717
aS'20 bars'
p1718
aS'20 bars'
p1719
aS'18 bars'
p1720
aS'18 bars'
p1721
aS'16 bars'
p1722
aS'16 bars'
p1723
aS'14 bars'
p1724
aS'14 bars'
p1725
aS'12 bars'
p1726
aS'12 bars'
p1727
aS'10 bars'
p1728
aS'10 bars'
p1729
aS'9 bars'
p1730
aS'9 bars'
p1731
aS'8 bars'
p1732
aS'8 bars'
p1733
aS'7 bars'
p1734
aS'7 bars'
p1735
aS'6 bars'
p1736
aS'6 bars'
p1737
aS'5 bars'
p1738
aS'5 bars'
p1739
aS'4 bars'
p1740
aS'4 bars'
p1741
aS'3.5 bars'
p1742
aS'3.5 bars'
p1743
aS'3 bars'
p1744
aS'3 bars'
p1745
aS'2.5 bars'
p1746
aS'2.5 bars'
p1747
aS'2 bars'
p1748
aS'2 bars'
p1749
aS'1.5 bars'
p1750
aS'1.5 bars'
p1751
aS'1 bar'
p1752
aS'1 bar'
p1753
aS'1/2.'
p1754
aS'1/2.'
p1755
aS'1/1T'
p1756
aS'1/1T'
p1757
aS'1/2 '
p1758
aS'1/2 '
p1759
aS'1/4.'
p1760
aS'1/4.'
p1761
aS'1/2T'
p1762
aS'1/2T'
p1763
aS'1/4 '
p1764
aS'1/4 '
p1765
aS'1/8.'
p1766
aS'1/8.'
p1767
aS'1/4T'
p1768
aS'1/4T'
p1769
aS'1/8 '
p1770
aS'1/8 '
p1771
aS'1/16.'
p1772
aS'1/16.'
p1773
aS'1/8T'
p1774
aS'1/8T'
p1775
aS'1/16 '
p1776
aS'1/16 '
p1777
aS'1/32.'
p1778
aS'1/32.'
p1779
aS'1/16T'
p1780
aS'1/16T'
p1781
aS'1/32 '
p1782
aS'1/32 '
p1783
aS'1/48'
p1784
aS'1/48'
p1785
aaS'LFO 1 Speed'
p1786
aS'Speed'
p1787
aS'LFO 1'
p1788
aS'LFO_1_Speed'
p1789
aag2
a(lp1790
(I0
I1
I1
tp1791
ag829
aS'LFO 1 Sync'
p1792
aS'Sync'
p1793
aS'LFO 1'
p1794
aS'LFO_1_Sync'
p1795
aa(lp1796
(I0
I1
I1
tp1797
ag829
aS'LFO 1 Clocked'
p1798
aS'Clocked'
p1799
aS'LFO 1'
p1800
aS'LFO_1_Clocked'
p1801
aa(lp1802
(I0
I127
I1
tp1803
a(S'free'
p1804
S'0\xc2\xb0'
p1805
S'3\xc2\xb0'
p1806
S'6\xc2\xb0'
p1807
S'8\xc2\xb0'
p1808
S'11\xc2\xb0'
p1809
S'14\xc2\xb0'
p1810
S'17\xc2\xb0'
p1811
S'20\xc2\xb0'
p1812
S'22\xc2\xb0'
p1813
S'25\xc2\xb0'
p1814
S'28\xc2\xb0'
p1815
S'31\xc2\xb0'
p1816
S'34\xc2\xb0'
p1817
S'36\xc2\xb0'
p1818
S'39\xc2\xb0'
p1819
S'42\xc2\xb0'
p1820
S'45\xc2\xb0'
p1821
S'48\xc2\xb0'
p1822
S'50\xc2\xb0'
p1823
S'53\xc2\xb0'
p1824
S'56\xc2\xb0'
p1825
S'59\xc2\xb0'
p1826
S'62\xc2\xb0'
p1827
S'64\xc2\xb0'
p1828
S'67\xc2\xb0'
p1829
S'70\xc2\xb0'
p1830
S'73\xc2\xb0'
p1831
S'76\xc2\xb0'
p1832
S'78\xc2\xb0'
p1833
S'81\xc2\xb0'
p1834
S'84\xc2\xb0'
p1835
S'87\xc2\xb0'
p1836
S'90\xc2\xb0'
p1837
S'92\xc2\xb0'
p1838
S'95\xc2\xb0'
p1839
S'98\xc2\xb0'
p1840
S'101\xc2\xb0'
p1841
S'104\xc2\xb0'
p1842
S'106\xc2\xb0'
p1843
S'109\xc2\xb0'
p1844
S'112\xc2\xb0'
p1845
S'115\xc2\xb0'
p1846
S'118\xc2\xb0'
p1847
S'120\xc2\xb0'
p1848
S'123\xc2\xb0'
p1849
S'126\xc2\xb0'
p1850
S'129\xc2\xb0'
p1851
S'132\xc2\xb0'
p1852
S'134\xc2\xb0'
p1853
S'137\xc2\xb0'
p1854
S'140\xc2\xb0'
p1855
S'143\xc2\xb0'
p1856
S'146\xc2\xb0'
p1857
S'148\xc2\xb0'
p1858
S'151\xc2\xb0'
p1859
S'154\xc2\xb0'
p1860
S'157\xc2\xb0'
p1861
S'160\xc2\xb0'
p1862
S'162\xc2\xb0'
p1863
S'165\xc2\xb0'
p1864
S'168\xc2\xb0'
p1865
S'171\xc2\xb0'
p1866
S'174\xc2\xb0'
p1867
S'176\xc2\xb0'
p1868
S'179\xc2\xb0'
p1869
S'182\xc2\xb0'
p1870
S'185\xc2\xb0'
p1871
S'188\xc2\xb0'
p1872
S'190\xc2\xb0'
p1873
S'193\xc2\xb0'
p1874
S'196\xc2\xb0'
p1875
S'199\xc2\xb0'
p1876
S'202\xc2\xb0'
p1877
S'204\xc2\xb0'
p1878
S'207\xc2\xb0'
p1879
S'210\xc2\xb0'
p1880
S'213\xc2\xb0'
p1881
S'216\xc2\xb0'
p1882
S'218\xc2\xb0'
p1883
S'221\xc2\xb0'
p1884
S'224\xc2\xb0'
p1885
S'227\xc2\xb0'
p1886
S'230\xc2\xb0'
p1887
S'232\xc2\xb0'
p1888
S'235\xc2\xb0'
p1889
S'238\xc2\xb0'
p1890
S'241\xc2\xb0'
p1891
S'244\xc2\xb0'
p1892
S'246\xc2\xb0'
p1893
S'249\xc2\xb0'
p1894
S'252\xc2\xb0'
p1895
S'255\xc2\xb0'
p1896
S'258\xc2\xb0'
p1897
S'260\xc2\xb0'
p1898
S'263\xc2\xb0'
p1899
S'266\xc2\xb0'
p1900
S'269\xc2\xb0'
p1901
S'272\xc2\xb0'
p1902
S'274\xc2\xb0'
p1903
S'277\xc2\xb0'
p1904
S'280\xc2\xb0'
p1905
S'283\xc2\xb0'
p1906
S'286\xc2\xb0'
p1907
S'288\xc2\xb0'
p1908
S'291\xc2\xb0'
p1909
S'294\xc2\xb0'
p1910
S'297\xc2\xb0'
p1911
S'300\xc2\xb0'
p1912
S'302\xc2\xb0'
p1913
S'305\xc2\xb0'
p1914
S'308\xc2\xb0'
p1915
S'311\xc2\xb0'
p1916
S'314\xc2\xb0'
p1917
S'316\xc2\xb0'
p1918
S'319\xc2\xb0'
p1919
S'322\xc2\xb0'
p1920
S'325\xc2\xb0'
p1921
S'328\xc2\xb0'
p1922
S'330\xc2\xb0'
p1923
S'333\xc2\xb0'
p1924
S'336\xc2\xb0'
p1925
S'339\xc2\xb0'
p1926
S'342\xc2\xb0'
p1927
S'344\xc2\xb0'
p1928
S'347\xc2\xb0'
p1929
S'350\xc2\xb0'
p1930
S'353\xc2\xb0'
p1931
tp1932
aS'LFO 1 Start Phase'
p1933
aS'Start Phase'
p1934
aS'LFO 1'
p1935
aS'LFO_1_Start_Phase'
p1936
aa(lp1937
(I0
I127
I1
tp1938
ag526
aS'LFO 1 Delay'
p1939
aS'Delay'
p1940
aS'LFO 1'
p1941
aS'LFO_1_Delay'
p1942
aa(lp1943
(I0
I127
I1
tp1944
ag181
aS'LFO 1 Fade'
p1945
aS'Fade'
p1946
aS'LFO 1'
p1947
aS'LFO_1_Fade'
p1948
aag2
ag2
a(lp1949
(I0
I127
I1
tp1950
ag372
aS'LFO 1 Keytrack'
p1951
aS'Keytrack'
p1952
aS'LFO 1'
p1953
aS'LFO_1_Keytrack'
p1954
aag2
a(lp1955
(I0
I5
I1
tp1956
ag1644
aS'LFO 2 Shape'
p1957
aS'Shape'
p1958
aS'LFO 2'
p1959
aS'LFO_2_Shape'
p1960
aa(lp1961
(I0
I127
I1
tp1962
ag1657
aS'LFO 2 Speed'
p1963
aS'Speed'
p1964
aS'LFO 2'
p1965
aS'LFO_2_Speed'
p1966
aag2
a(lp1967
(I0
I1
I1
tp1968
ag829
aS'LFO 2 Sync'
p1969
aS'Sync'
p1970
aS'LFO 2'
p1971
aS'LFO_2_Sync'
p1972
aa(lp1973
(I0
I1
I1
tp1974
ag829
aS'LFO 2 Clocked'
p1975
aS'Clocked'
p1976
aS'LFO 2'
p1977
aS'LFO_2_Clocked'
p1978
aa(lp1979
(I0
I127
I1
tp1980
ag1932
aS'LFO 2 Start Phase'
p1981
aS'Start Phase'
p1982
aS'LFO 2'
p1983
aS'LFO_2_Start_Phase'
p1984
aa(lp1985
(I0
I127
I1
tp1986
ag526
aS'LFO 2 Delay'
p1987
aS'Delay'
p1988
aS'LFO 2'
p1989
aS'LFO_2_Delay'
p1990
aa(lp1991
(I0
I127
I1
tp1992
ag181
aS'LFO 2 Fade'
p1993
aS'Fade'
p1994
aS'LFO 2'
p1995
aS'LFO_2_Fade'
p1996
aag2
ag2
a(lp1997
(I0
I127
I1
tp1998
ag372
aS'LFO 2 Keytrack'
p1999
aS'Keytrack'
p2000
aS'LFO 2'
p2001
aS'LFO_2_Keytrack'
p2002
aag2
a(lp2003
(I0
I5
I1
tp2004
ag1644
aS'LFO 3 Shape'
p2005
aS'Shape'
p2006
aS'LFO 3'
p2007
aS'LFO_3_Shape'
p2008
aa(lp2009
(I0
I127
I1
tp2010
ag1657
aS'LFO 3 Speed'
p2011
aS'Speed'
p2012
aS'LFO 3'
p2013
aS'LFO_3_Speed'
p2014
aag2
a(lp2015
(I0
I1
I1
tp2016
ag829
aS'LFO 3 Sync'
p2017
aS'Sync'
p2018
aS'LFO 3'
p2019
aS'LFO_3_Sync'
p2020
aa(lp2021
(I0
I1
I1
tp2022
ag829
aS'LFO 3 Clocked'
p2023
aS'Clocked'
p2024
aS'LFO 3'
p2025
aS'LFO_3_Clocked'
p2026
aa(lp2027
(I0
I127
I1
tp2028
ag1932
aS'LFO 3 Start Phase'
p2029
aS'Start Phase'
p2030
aS'LFO 3'
p2031
aS'LFO_3_Start_Phase'
p2032
aa(lp2033
(I0
I127
I1
tp2034
ag526
aS'LFO 3 Delay'
p2035
aS'Delay'
p2036
aS'LFO 3'
p2037
aS'LFO_3_Delay'
p2038
aa(lp2039
(I0
I127
I1
tp2040
ag181
aS'LFO 3 Fade'
p2041
aS'Fade'
p2042
aS'LFO 3'
p2043
aS'LFO_3_Fade'
p2044
aag2
ag2
a(lp2045
(I0
I127
I1
tp2046
ag372
aS'LFO 3 Keytrack'
p2047
aS'Keytrack'
p2048
aS'LFO 3'
p2049
aS'LFO_3_Keytrack'
p2050
aag2
a(lp2051
(I0
I4
I1
tp2052
ag372
aS'Filter Envelope Mode'
p2053
aS'Mode'
p2054
aS'Filter Envelope'
p2055
aS'Filter_Envelope_Mode'
p2056
aag2
ag2
a(lp2057
(I0
I127
I1
tp2058
ag526
aS'Filter Envelope Attack'
p2059
aS'Attack'
p2060
aS'Filter Envelope'
p2061
aS'Filter_Envelope_Attack'
p2062
aa(lp2063
(I0
I127
I1
tp2064
ag526
aS'Filter Envelope Attack Level'
p2065
aS'Attack Level'
p2066
aS'Filter Envelope'
p2067
aS'Filter_Envelope_Attack_Level'
p2068
aa(lp2069
(I0
I127
I1
tp2070
ag526
aS'Filter Envelope Decay'
p2071
aS'Decay'
p2072
aS'Filter Envelope'
p2073
aS'Filter_Envelope_Decay'
p2074
aa(lp2075
(I0
I127
I1
tp2076
ag526
aS'Filter Envelope Sustain'
p2077
aS'Sustain'
p2078
aS'Filter Envelope'
p2079
aS'Filter_Envelope_Sustain'
p2080
aa(lp2081
(I0
I127
I1
tp2082
ag526
aS'Filter Envelope Decay 2'
p2083
aS'Decay 2'
p2084
aS'Filter Envelope'
p2085
aS'Filter_Envelope_Decay_2'
p2086
aa(lp2087
(I0
I127
I1
tp2088
ag526
aS'Filter Envelope Sustain 2'
p2089
aS'Sustain 2'
p2090
aS'Filter Envelope'
p2091
aS'Filter_Envelope_Sustain_2'
p2092
aa(lp2093
(I0
I127
I1
tp2094
ag526
aS'Filter Envelope Release'
p2095
aS'Release'
p2096
aS'Filter Envelope'
p2097
aS'Filter_Envelope_Release'
p2098
aag2
ag2
a(lp2099
(I0
I4
I1
tp2100
ag526
aS'Amplifier Envelope Mode'
p2101
aS'Mode'
p2102
aS'Amplifier Envelope'
p2103
aS'Amplifier_Envelope_Mode'
p2104
aag2
ag2
a(lp2105
(I0
I127
I1
tp2106
ag526
aS'Amplifier Envelope Attack'
p2107
aS'Attack'
p2108
aS'Amplifier Envelope'
p2109
aS'Amplifier_Envelope_Attack'
p2110
aa(lp2111
(I0
I127
I1
tp2112
ag526
aS'Amplifier Envelope Attack Level'
p2113
aS'Attack Level'
p2114
aS'Amplifier Envelope'
p2115
aS'Amplifier_Envelope_Attack_Level'
p2116
aa(lp2117
(I0
I127
I1
tp2118
ag526
aS'Amplifier Envelope Decay'
p2119
aS'Decay'
p2120
aS'Amplifier Envelope'
p2121
aS'Amplifier_Envelope_Decay'
p2122
aa(lp2123
(I0
I127
I1
tp2124
ag526
aS'Amplifier Envelope Sustain'
p2125
aS'Sustain'
p2126
aS'Amplifier Envelope'
p2127
aS'Amplifier_Envelope_Sustain'
p2128
aa(lp2129
(I0
I127
I1
tp2130
ag526
aS'Amplifier Envelope Decay 2'
p2131
aS'Decay 2'
p2132
aS'Amplifier Envelope'
p2133
aS'Amplifier_Envelope_Decay_2'
p2134
aa(lp2135
(I0
I127
I1
tp2136
ag526
aS'Amplifier Envelope Sustain 2'
p2137
aS'Sustain 2'
p2138
aS'Amplifier Envelope'
p2139
aS'Amplifier_Envelope_Sustain_2'
p2140
aa(lp2141
(I0
I127
I1
tp2142
ag526
aS'Amplifier Envelope Release'
p2143
aS'Release'
p2144
aS'Amplifier Envelope'
p2145
aS'Amplifier_Envelope_Release'
p2146
aag2
ag2
a(lp2147
(I0
I4
I1
tp2148
ag526
aS'Envelope 3 Mode'
p2149
aS'Mode'
p2150
aS'Envelope 3'
p2151
aS'Envelope_3_Mode'
p2152
aag2
ag2
a(lp2153
(I0
I127
I1
tp2154
ag526
aS'Envelope 3 Attack'
p2155
aS'Attack'
p2156
aS'Envelope 3'
p2157
aS'Envelope_3_Attack'
p2158
aa(lp2159
(I0
I127
I1
tp2160
ag526
aS'Envelope 3 Attack Level'
p2161
aS'Attack Level'
p2162
aS'Envelope 3'
p2163
aS'Envelope_3_Attack_Level'
p2164
aa(lp2165
(I0
I127
I1
tp2166
ag526
aS'Envelope 3 Decay'
p2167
aS'Decay'
p2168
aS'Envelope 3'
p2169
aS'Envelope_3_Decay'
p2170
aa(lp2171
(I0
I127
I1
tp2172
ag526
aS'Envelope 3 Sustain'
p2173
aS'Sustain'
p2174
aS'Envelope 3'
p2175
aS'Envelope_3_Sustain'
p2176
aa(lp2177
(I0
I127
I1
tp2178
ag526
aS'Envelope 3 Decay 2'
p2179
aS'Decay 2'
p2180
aS'Envelope 3'
p2181
aS'Envelope_3_Decay_2'
p2182
aa(lp2183
(I0
I127
I1
tp2184
ag526
aS'Envelope 3 Sustain 2'
p2185
aS'Sustain 2'
p2186
aS'Envelope 3'
p2187
aS'Envelope_3_Sustain_2'
p2188
aa(lp2189
(I0
I127
I1
tp2190
ag526
aS'Envelope 3 Release'
p2191
aS'Release'
p2192
aS'Envelope 3'
p2193
aS'Envelope_3_Release'
p2194
aag2
ag2
a(lp2195
(I0
I4
I1
tp2196
ag526
aS'Envelope 4 Mode'
p2197
aS'Mode'
p2198
aS'Envelope 4'
p2199
aS'Envelope_4_Mode'
p2200
aag2
ag2
a(lp2201
(I0
I127
I1
tp2202
ag526
aS'Envelope 4 Attack'
p2203
aS'Attack'
p2204
aS'Envelope 4'
p2205
aS'Envelope_4_Attack'
p2206
aa(lp2207
(I0
I127
I1
tp2208
ag526
aS'Envelope 4 Attack Level'
p2209
aS'Attack Level'
p2210
aS'Envelope 4'
p2211
aS'Envelope_4_Attack_Level'
p2212
aa(lp2213
(I0
I127
I1
tp2214
ag526
aS'Envelope 4 Decay'
p2215
aS'Decay'
p2216
aS'Envelope 4'
p2217
aS'Envelope_4_Decay'
p2218
aa(lp2219
(I0
I127
I1
tp2220
ag526
aS'Envelope 4 Sustain'
p2221
aS'Sustain'
p2222
aS'Envelope 4'
p2223
aS'Envelope_4_Sustain'
p2224
aa(lp2225
(I0
I127
I1
tp2226
ag526
aS'Envelope 4 Decay 2'
p2227
aS'Decay 2'
p2228
aS'Envelope 4'
p2229
aS'Envelope_4_Decay_2'
p2230
aa(lp2231
(I0
I127
I1
tp2232
ag526
aS'Envelope 4 Sustain 2'
p2233
aS'Sustain 2'
p2234
aS'Envelope 4'
p2235
aS'Envelope_4_Sustain_2'
p2236
aa(lp2237
(I0
I127
I1
tp2238
ag526
aS'Envelope 4 Release'
p2239
aS'Release'
p2240
aS'Envelope 4'
p2241
aS'Envelope_4_Release'
p2242
aag2
ag2
ag2
a(lp2243
(I0
I30
I1
tp2244
ag619
aS'Modifier 1 Source A'
p2245
aS'Source A'
p2246
aS'Modifier 1'
p2247
aS'Modifier_1_Source_A'
p2248
aa(lp2249
(I0
I30
I1
tp2250
ag619
aS'Modifier 1 Source B'
p2251
aS'Source B'
p2252
aS'Modifier 1'
p2253
aS'Modifier_1_Source_B'
p2254
aa(lp2255
(I0
I7
I1
tp2256
a(lp2257
S'+'
p2258
aS'-'
p2259
aS'*'
p2260
aS'AND'
p2261
aS'OR'
p2262
aS'XOR'
p2263
aS'MAX'
p2264
aS'min'
p2265
aaS'Modifier 1 Operation'
p2266
aS'Operation'
p2267
aS'Modifier 1'
p2268
aS'Modifier_1_Operation'
p2269
aa(lp2270
(I0
I127
I1
tp2271
ag181
aS'Modifier 1 Constant'
p2272
aS'Constant'
p2273
aS'Modifier 1'
p2274
aS'Modifier_1_Constant'
p2275
aa(lp2276
(I0
I30
I1
tp2277
ag619
aS'Modifier 2 Source A'
p2278
aS'Source A'
p2279
aS'Modifier 2'
p2280
aS'Modifier_2_Source_A'
p2281
aa(lp2282
(I0
I30
I1
tp2283
ag619
aS'Modifier 2 Source B'
p2284
aS'Source B'
p2285
aS'Modifier 2'
p2286
aS'Modifier_2_Source_B'
p2287
aa(lp2288
(I0
I7
I1
tp2289
ag2257
aS'Modifier 2 Operation'
p2290
aS'Operation'
p2291
aS'Modifier 2'
p2292
aS'Modifier_2_Operation'
p2293
aa(lp2294
(I0
I127
I1
tp2295
ag181
aS'Modifier 2 Constant'
p2296
aS'Constant'
p2297
aS'Modifier 2'
p2298
aS'Modifier_2_Constant'
p2299
aa(lp2300
(I0
I30
I1
tp2301
ag619
aS'Modifier 3 Source A'
p2302
aS'Source A'
p2303
aS'Modifier 3'
p2304
aS'Modifier_3_Source_A'
p2305
aa(lp2306
(I0
I30
I1
tp2307
ag619
aS'Modifier 3 Source B'
p2308
aS'Source B'
p2309
aS'Modifier 3'
p2310
aS'Modifier_3_Source_B'
p2311
aa(lp2312
(I0
I7
I1
tp2313
ag2257
aS'Modifier 3 Operation'
p2314
aS'Operation'
p2315
aS'Modifier 3'
p2316
aS'Modifier_3_Operation'
p2317
aa(lp2318
(I0
I127
I1
tp2319
ag181
aS'Modifier 3 Constant'
p2320
aS'Constant'
p2321
aS'Modifier 3'
p2322
aS'Modifier_3_Constant'
p2323
aa(lp2324
(I0
I30
I1
tp2325
ag619
aS'Modifier 4 Source A'
p2326
aS'Source A'
p2327
aS'Modifier 4'
p2328
aS'Modifier_4_Source_A'
p2329
aa(lp2330
(I0
I30
I1
tp2331
ag619
aS'Modifier 4 Source B'
p2332
aS'Source B'
p2333
aS'Modifier 4'
p2334
aS'Modifier_4_Source_B'
p2335
aa(lp2336
(I0
I7
I1
tp2337
ag2257
aS'Modifier 4 Operation'
p2338
aS'Operation'
p2339
aS'Modifier 4'
p2340
aS'Modifier_4_Operation'
p2341
aa(lp2342
(I0
I127
I1
tp2343
ag181
aS'Modifier 4 Constant'
p2344
aS'Constant'
p2345
aS'Modifier 4'
p2346
aS'Modifier_4_Constant'
p2347
aa(lp2348
(I0
I30
I1
tp2349
ag619
aS'Modulation 1 Source'
p2350
ag2350
ag849
aS'Modulation_1_Source'
p2351
aa(lp2352
(I0
I53
I1
tp2353
a(lp2354
S'Pitch'
p2355
aS'O1 Pitch'
p2356
aS'O1 FM'
p2357
aS'O1 PW/Wave'
p2358
aS'O2 Pitch'
p2359
aS'O2 FM'
p2360
aS'O2 PW/Wave'
p2361
aS'O3 Pitch'
p2362
aS'O3 FM'
p2363
aS'O3 PW'
p2364
aS'O1 Level'
p2365
aS'O1 Balance'
p2366
aS'O2 Level'
p2367
aS'O2 Balance'
p2368
aS'O3 Level'
p2369
aS'O3 Balance'
p2370
aS'RMod Level'
p2371
aS'RMod Bal.'
p2372
aS'NoiseLevel'
p2373
aS'Noise Bal.'
p2374
aS'F1 Cutoff'
p2375
aS'F1 Reson.'
p2376
aS'F1 FM'
p2377
aS'F1 Drive'
p2378
aS'F1 Pan'
p2379
aS'F2 Cutoff'
p2380
aS'F2 Reson.'
p2381
aS'F2 FM'
p2382
aS'F2 Drive'
p2383
aS'F2 Pan'
p2384
aS'Volume'
p2385
aS'LFO1Speed'
p2386
aS'LFO2Speed'
p2387
aS'LFO3Speed'
p2388
aS'FE Attack'
p2389
aS'FE Decay'
p2390
aS'FE Sustain'
p2391
aS'FE Release'
p2392
aS'AE Attack'
p2393
aS'AE Decay'
p2394
aS'AE Sustain'
p2395
aS'AE Release'
p2396
aS'E3 Attack'
p2397
aS'E3 Decay'
p2398
aS'E3 Sustain'
p2399
aS'E3 Release'
p2400
aS'E4 Attack'
p2401
aS'E4 Decay'
p2402
aS'E4 Sustain'
p2403
aS'E4 Release'
p2404
aS'M1 Amount'
p2405
aS'M2 Amount'
p2406
aS'M3 Amount'
p2407
aS'M4 Amount'
p2408
aaS'Modulation 1 Destination'
p2409
ag2409
ag849
aS'Modulation_1_Destination'
p2410
aa(lp2411
(I0
I127
I1
tp2412
ag181
aS'Modulation 1 Amount'
p2413
ag2413
ag849
aS'Modulation_1_Amount'
p2414
aa(lp2415
(I0
I30
I1
tp2416
ag619
aS'Modulation 2 Source'
p2417
ag2417
ag849
aS'Modulation_2_Source'
p2418
aa(lp2419
(I0
I53
I1
tp2420
ag2354
aS'Modulation 2 Destination'
p2421
ag2421
ag849
aS'Modulation_2_Destination'
p2422
aa(lp2423
(I0
I127
I1
tp2424
ag181
aS'Modulation 2 Amount'
p2425
ag2425
ag849
aS'Modulation_2_Amount'
p2426
aa(lp2427
(I0
I30
I1
tp2428
ag619
aS'Modulation 3 Source'
p2429
ag2429
ag849
aS'Modulation_3_Source'
p2430
aa(lp2431
(I0
I53
I1
tp2432
ag2354
aS'Modulation 3 Destination'
p2433
ag2433
ag849
aS'Modulation_3_Destination'
p2434
aa(lp2435
(I0
I127
I1
tp2436
ag181
aS'Modulation 3 Amount'
p2437
ag2437
ag849
aS'Modulation_3_Amount'
p2438
aa(lp2439
(I0
I30
I1
tp2440
ag619
aS'Modulation 4 Source'
p2441
ag2441
ag849
aS'Modulation_4_Source'
p2442
aa(lp2443
(I0
I53
I1
tp2444
ag2354
aS'Modulation 4 Destination'
p2445
ag2445
ag849
aS'Modulation_4_Destination'
p2446
aa(lp2447
(I0
I127
I1
tp2448
ag181
aS'Modulation 4 Amount'
p2449
ag2449
ag849
aS'Modulation_4_Amount'
p2450
aa(lp2451
(I0
I30
I1
tp2452
ag619
aS'Modulation 5 Source'
p2453
ag2453
ag849
aS'Modulation_5_Source'
p2454
aa(lp2455
(I0
I53
I1
tp2456
ag2354
aS'Modulation 5 Destination'
p2457
ag2457
ag849
aS'Modulation_5_Destination'
p2458
aa(lp2459
(I0
I127
I1
tp2460
ag181
aS'Modulation 5 Amount'
p2461
ag2461
ag849
aS'Modulation_5_Amount'
p2462
aa(lp2463
(I0
I30
I1
tp2464
ag619
aS'Modulation 6 Source'
p2465
ag2465
ag849
aS'Modulation_6_Source'
p2466
aa(lp2467
(I0
I53
I1
tp2468
ag2354
aS'Modulation 6 Destination'
p2469
ag2469
ag849
aS'Modulation_6_Destination'
p2470
aa(lp2471
(I0
I127
I1
tp2472
ag181
aS'Modulation 6 Amount'
p2473
ag2473
ag849
aS'Modulation_6_Amount'
p2474
aa(lp2475
(I0
I30
I1
tp2476
ag619
aS'Modulation 7 Source'
p2477
ag2477
ag849
aS'Modulation_7_Source'
p2478
aa(lp2479
(I0
I53
I1
tp2480
ag2354
aS'Modulation 7 Destination'
p2481
ag2481
ag849
aS'Modulation_7_Destination'
p2482
aa(lp2483
(I0
I127
I1
tp2484
ag181
aS'Modulation 7 Amount'
p2485
ag2485
ag849
aS'Modulation_7_Amount'
p2486
aa(lp2487
(I0
I30
I1
tp2488
ag619
aS'Modulation 8 Source'
p2489
ag2489
ag849
aS'Modulation_8_Source'
p2490
aa(lp2491
(I0
I53
I1
tp2492
ag2354
aS'Modulation 8 Destination'
p2493
ag2493
ag849
aS'Modulation_8_Destination'
p2494
aa(lp2495
(I0
I127
I1
tp2496
ag181
aS'Modulation 8 Amount'
p2497
ag2497
ag849
aS'Modulation_8_Amount'
p2498
aa(lp2499
(I0
I30
I1
tp2500
ag619
aS'Modulation 9 Source'
p2501
ag2501
ag849
aS'Modulation_9_Source'
p2502
aa(lp2503
(I0
I53
I1
tp2504
ag2354
aS'Modulation 9 Destination'
p2505
ag2505
ag849
aS'Modulation_9_Destination'
p2506
aa(lp2507
(I0
I127
I1
tp2508
ag181
aS'Modulation 9 Amount'
p2509
ag2509
ag849
aS'Modulation_9_Amount'
p2510
aa(lp2511
(I0
I30
I1
tp2512
ag619
aS'Modulation 10 Source'
p2513
ag2513
ag849
aS'Modulation_10_Source'
p2514
aa(lp2515
(I0
I53
I1
tp2516
ag2354
aS'Modulation 10 Destination'
p2517
ag2517
ag849
aS'Modulation_10_Destination'
p2518
aa(lp2519
(I0
I127
I1
tp2520
ag181
aS'Modulation 10 Amount'
p2521
ag2521
ag849
aS'Modulation_10_Amount'
p2522
aa(lp2523
(I0
I30
I1
tp2524
ag619
aS'Modulation 11 Source'
p2525
ag2525
ag849
aS'Modulation_11_Source'
p2526
aa(lp2527
(I0
I53
I1
tp2528
ag2354
aS'Modulation 11 Destination'
p2529
ag2529
ag849
aS'Modulation_11_Destination'
p2530
aa(lp2531
(I0
I127
I1
tp2532
ag181
aS'Modulation 11 Amount'
p2533
ag2533
ag849
aS'Modulation_11_Amount'
p2534
aa(lp2535
(I0
I30
I1
tp2536
ag619
aS'Modulation 12 Source'
p2537
ag2537
ag849
aS'Modulation_12_Source'
p2538
aa(lp2539
(I0
I53
I1
tp2540
ag2354
aS'Modulation 12 Destination'
p2541
ag2541
ag849
aS'Modulation_12_Destination'
p2542
aa(lp2543
(I0
I127
I1
tp2544
ag181
aS'Modulation 12 Amount'
p2545
ag2545
ag849
aS'Modulation_12_Amount'
p2546
aa(lp2547
(I0
I30
I1
tp2548
ag619
aS'Modulation 13 Source'
p2549
ag2549
ag849
aS'Modulation_13_Source'
p2550
aa(lp2551
(I0
I53
I1
tp2552
ag2354
aS'Modulation 13 Destination'
p2553
ag2553
ag849
aS'Modulation_13_Destination'
p2554
aa(lp2555
(I0
I127
I1
tp2556
ag181
aS'Modulation 13 Amount'
p2557
ag2557
ag849
aS'Modulation_13_Amount'
p2558
aa(lp2559
(I0
I30
I1
tp2560
ag619
aS'Modulation 14 Source'
p2561
ag2561
ag849
aS'Modulation_14_Source'
p2562
aa(lp2563
(I0
I53
I1
tp2564
ag2354
aS'Modulation 14 Destination'
p2565
ag2565
ag849
aS'Modulation_14_Destination'
p2566
aa(lp2567
(I0
I127
I1
tp2568
ag181
aS'Modulation 14 Amount'
p2569
ag2569
ag849
aS'Modulation_14_Amount'
p2570
aa(lp2571
(I0
I30
I1
tp2572
ag619
aS'Modulation 15 Source'
p2573
ag2573
ag849
aS'Modulation_15_Source'
p2574
aa(lp2575
(I0
I53
I1
tp2576
ag2354
aS'Modulation 15 Destination'
p2577
ag2577
ag849
aS'Modulation_15_Destination'
p2578
aa(lp2579
(I0
I127
I1
tp2580
ag181
aS'Modulation 15 Amount'
p2581
ag2581
ag849
aS'Modulation_15_Amount'
p2582
aa(lp2583
(I0
I30
I1
tp2584
ag619
aS'Modulation 16 Source'
p2585
ag2585
ag849
aS'Modulation_16_Source'
p2586
aa(lp2587
(I0
I53
I1
tp2588
ag2354
aS'Modulation 16 Destination'
p2589
ag2589
ag849
aS'Modulation_16_Destination'
p2590
aa(lp2591
(I0
I127
I1
tp2592
ag181
aS'Modulation 16 Amount'
p2593
ag2593
ag849
aS'Modulation_16_Amount'
p2594
aag2
ag2
a(lp2595
(I0
I3
I1
tp2596
a(g664
g663
S'One Shot'
p2597
S'Hold'
p2598
tp2599
aS'Arpeggiator Mode'
p2600
ag2600
ag849
aS'Arpeggiator_Mode'
p2601
aa(lp2602
(I0
I16
I1
tp2603
a(S'User'
p2604
g399
g400
g401
g402
g403
g404
g405
g406
g407
S'10'
p2605
S'11'
p2606
S'12'
p2607
S'13'
p2608
S'14'
p2609
S'15'
p2610
tp2611
aS'Arpeggiator Pattern'
p2612
ag2612
ag849
aS'Arpeggiator_Pattern'
p2613
aag2
a(lp2614
(I0
I42
I1
tp2615
a(lp2616
S'1/96'
p2617
aS'1/48'
p2618
aS'1/32 '
p2619
aS'1/16T'
p2620
aS'1/32.'
p2621
aS'1/16 '
p2622
aS'1/8T'
p2623
aS'1/16.'
p2624
aS'1/8 '
p2625
aS'1/4T'
p2626
aS'1/8.'
p2627
aS'1/4 '
p2628
aS'1/2T'
p2629
aS'1/4.'
p2630
aS'1/2 '
p2631
aS'1/1T'
p2632
aS'1/2.'
p2633
aS'1 bar'
p2634
aS'1.5 bars'
p2635
aS'2 bars'
p2636
aS'2.5 bars'
p2637
aS'3 bars'
p2638
aS'3.5 bars'
p2639
aS'4 bars'
p2640
aS'5 bars'
p2641
aS'6 bars'
p2642
aS'7 bars'
p2643
aS'8 bars'
p2644
aS'9 bars'
p2645
aS'10 bars'
p2646
aS'12 bars'
p2647
aS'14 bars'
p2648
aS'16 bars'
p2649
aS'18 bars'
p2650
aS'20 bars'
p2651
aS'24 bars'
p2652
aS'28 bars'
p2653
aS'32 bars'
p2654
aS'36 bars'
p2655
aS'40 bars'
p2656
aS'48 bars'
p2657
aS'56 bars'
p2658
aS'64 bars'
p2659
aaS'Arpeggiator Clock'
p2660
ag2660
ag849
aS'Arpeggiator_Clock'
p2661
aa(lp2662
(I0
I43
I1
tp2663
a(S'1/96'
p2664
S'1/48'
p2665
S'1/32'
p2666
S'1/16T'
p2667
S'1/32.'
p2668
S'1/16'
p2669
S'1/8T'
p2670
S'1/16.'
p2671
S'1/8'
p2672
S'1/4T'
p2673
S'1/8.'
p2674
S'1/4'
p2675
S'1/2T'
p2676
S'1/4.'
p2677
S'1/2'
p2678
S'1/1T'
p2679
S'1/2.'
p2680
S'1 bar'
p2681
S'1.5 bars'
p2682
S'2 bars'
p2683
S'2.5 bars'
p2684
S'3 bars'
p2685
S'3.5 bars'
p2686
S'4 bars'
p2687
S'5 bars'
p2688
S'6 bars'
p2689
S'7 bars'
p2690
S'8 bars'
p2691
S'9 bars'
p2692
S'10 bars'
p2693
S'12 bars'
p2694
S'14 bars'
p2695
S'16 bars'
p2696
S'18 bars'
p2697
S'20 bars'
p2698
S'24 bars'
p2699
S'28 bars'
p2700
S'32 bars'
p2701
S'36 bars'
p2702
S'40 bars'
p2703
S'48 bars'
p2704
S'56 bars'
p2705
S'64 bars'
p2706
S'legato'
p2707
tp2708
aS'Arpeggiator Length'
p2709
ag2709
ag849
aS'Arpeggiator_Length'
p2710
aa(lp2711
(I0
I9
I1
tp2712
a(g399
g400
g401
g402
g403
g404
g405
g406
g407
S'10'
p2713
tp2714
aS'Arpeggiator Octave'
p2715
ag2715
ag849
aS'Arpeggiator_Octave'
p2716
aa(lp2717
(I0
I3
I1
tp2718
a(S'Up'
p2719
S'Down'
p2720
S'Alt Up'
p2721
S'Alt Down'
p2722
tp2723
aS'Arpeggiator Direction'
p2724
ag2724
ag849
aS'Arpeggiator_Direction'
p2725
aa(lp2726
(I0
I5
I1
tp2727
a(lp2728
S'as played'
p2729
aS'reversed'
p2730
aS'Key Lo>Hi'
p2731
aS'Key Hi>Lo'
p2732
aS'Vel Lo>Hi'
p2733
aS'Vel Hi>Lo'
p2734
aaS'Arpeggiator Sort Order'
p2735
ag2735
ag849
aS'Arpeggiator_Sort_Order'
p2736
aa(lp2737
(I0
I6
I1
tp2738
a(lp2739
S'Each Note'
p2740
aS'First Note'
p2741
aS'Last Note'
p2742
aS'fix 32'
p2743
aS'fix 64'
p2744
aS'fix 100'
p2745
aS'fix 127'
p2746
aaS'Arpeggiator Velocity'
p2747
ag2747
ag849
aS'Arpeggiator_Velocity'
p2748
aa(lp2749
(I0
I127
I1
tp2750
ag526
aS'Arpeggiator Timing Factor'
p2751
ag2751
ag849
aS'Arpeggiator_Timing_Factor'
p2752
aag2
a(lp2753
(I0
I1
I1
tp2754
ag829
aS'Arpeggiator Ptn Reset'
p2755
ag2755
ag849
aS'Arpeggiator_Ptn_Reset'
p2756
aa(lp2757
(I0
I15
I1
tp2758
a(g399
g400
g401
g402
g403
g404
g405
g406
g407
S'10'
p2759
S'11'
p2760
S'12'
p2761
S'13'
p2762
S'14'
p2763
S'15'
p2764
S'16'
p2765
tp2766
aS'Arpeggiator Ptn Length'
p2767
ag2767
ag849
aS'Arpeggiator_Ptn_Length'
p2768
aag2
ag2
a(lp2769
(I0
I127
I1
tp2770
a(S'40'
p2771
S'42'
p2772
S'44'
p2773
S'46'
p2774
S'48'
p2775
S'50'
p2776
S'52'
p2777
S'54'
p2778
S'56'
p2779
S'58'
p2780
S'60'
p2781
S'62'
p2782
S'64'
p2783
S'66'
p2784
S'68'
p2785
S'70'
p2786
S'72'
p2787
S'74'
p2788
S'76'
p2789
S'78'
p2790
S'80'
p2791
S'82'
p2792
S'84'
p2793
S'86'
p2794
S'88'
p2795
S'90'
p2796
S'91'
p2797
S'92'
p2798
S'93'
p2799
S'94'
p2800
S'95'
p2801
S'96'
p2802
S'97'
p2803
S'98'
p2804
S'99'
p2805
S'100'
p2806
S'101'
p2807
S'102'
p2808
S'103'
p2809
S'104'
p2810
S'105'
p2811
S'106'
p2812
S'107'
p2813
S'108'
p2814
S'109'
p2815
S'110'
p2816
S'111'
p2817
S'112'
p2818
S'113'
p2819
S'114'
p2820
S'115'
p2821
S'116'
p2822
S'117'
p2823
S'118'
p2824
S'119'
p2825
S'120'
p2826
S'121'
p2827
S'122'
p2828
S'123'
p2829
S'124'
p2830
S'125'
p2831
S'126'
p2832
S'127'
p2833
S'128'
p2834
S'129'
p2835
S'130'
p2836
S'131'
p2837
S'132'
p2838
S'133'
p2839
S'134'
p2840
S'135'
p2841
S'136'
p2842
S'137'
p2843
S'138'
p2844
S'139'
p2845
S'140'
p2846
S'141'
p2847
S'142'
p2848
S'143'
p2849
S'144'
p2850
S'145'
p2851
S'146'
p2852
S'147'
p2853
S'148'
p2854
S'149'
p2855
S'150'
p2856
S'151'
p2857
S'152'
p2858
S'153'
p2859
S'154'
p2860
S'155'
p2861
S'156'
p2862
S'157'
p2863
S'158'
p2864
S'159'
p2865
S'160'
p2866
S'161'
p2867
S'162'
p2868
S'163'
p2869
S'164'
p2870
S'165'
p2871
S'170'
p2872
S'175'
p2873
S'180'
p2874
S'185'
p2875
S'190'
p2876
S'195'
p2877
S'200'
p2878
S'205'
p2879
S'210'
p2880
S'215'
p2881
S'220'
p2882
S'225'
p2883
S'230'
p2884
S'235'
p2885
S'240'
p2886
S'245'
p2887
S'250'
p2888
S'255'
p2889
S'260'
p2890
S'265'
p2891
S'270'
p2892
S'275'
p2893
S'280'
p2894
S'285'
p2895
S'290'
p2896
S'295'
p2897
S'300'
p2898
tp2899
aS'Arpeggiator Tempo'
p2900
ag2900
ag849
aS'Arpeggiator_Tempo'
p2901
aa(lp2902
(I0
I127
I1
tp2903
ag2899
aS'Arp Pattern Step/Glide/Accent 1'
p2904
ag2904
ag849
aS'Arp_Pattern_Step_Glide_Accent_1'
p2905
aa(lp2906
(I0
I127
I1
tp2907
ag2899
aS'Arp Pattern Step/Glide/Accent 2'
p2908
ag2908
ag849
aS'Arp_Pattern_Step_Glide_Accent_2'
p2909
aa(lp2910
(I0
I127
I1
tp2911
ag2899
aS'Arp Pattern Step/Glide/Accent 3'
p2912
ag2912
ag849
aS'Arp_Pattern_Step_Glide_Accent_3'
p2913
aa(lp2914
(I0
I127
I1
tp2915
ag2899
aS'Arp Pattern Step/Glide/Accent 4'
p2916
ag2916
ag849
aS'Arp_Pattern_Step_Glide_Accent_4'
p2917
aa(lp2918
(I0
I127
I1
tp2919
ag2899
aS'Arp Pattern Step/Glide/Accent 5'
p2920
ag2920
ag849
aS'Arp_Pattern_Step_Glide_Accent_5'
p2921
aa(lp2922
(I0
I127
I1
tp2923
ag2899
aS'Arp Pattern Step/Glide/Accent 6'
p2924
ag2924
ag849
aS'Arp_Pattern_Step_Glide_Accent_6'
p2925
aa(lp2926
(I0
I127
I1
tp2927
ag2899
aS'Arp Pattern Step/Glide/Accent 7'
p2928
ag2928
ag849
aS'Arp_Pattern_Step_Glide_Accent_7'
p2929
aa(lp2930
(I0
I127
I1
tp2931
ag2899
aS'Arp Pattern Step/Glide/Accent 8'
p2932
ag2932
ag849
aS'Arp_Pattern_Step_Glide_Accent_8'
p2933
aa(lp2934
(I0
I127
I1
tp2935
ag2899
aS'Arp Pattern Step/Glide/Accent 9'
p2936
ag2936
ag849
aS'Arp_Pattern_Step_Glide_Accent_9'
p2937
aa(lp2938
(I0
I127
I1
tp2939
ag2899
aS'Arp Pattern Step/Glide/Accent 10'
p2940
ag2940
ag849
aS'Arp_Pattern_Step_Glide_Accent_10'
p2941
aa(lp2942
(I0
I127
I1
tp2943
ag2899
aS'Arp Pattern Step/Glide/Accent 11'
p2944
ag2944
ag849
aS'Arp_Pattern_Step_Glide_Accent_11'
p2945
aa(lp2946
(I0
I127
I1
tp2947
ag2899
aS'Arp Pattern Step/Glide/Accent 12'
p2948
ag2948
ag849
aS'Arp_Pattern_Step_Glide_Accent_12'
p2949
aa(lp2950
(I0
I127
I1
tp2951
ag2899
aS'Arp Pattern Step/Glide/Accent 13'
p2952
ag2952
ag849
aS'Arp_Pattern_Step_Glide_Accent_13'
p2953
aa(lp2954
(I0
I127
I1
tp2955
ag2899
aS'Arp Pattern Step/Glide/Accent 14'
p2956
ag2956
ag849
aS'Arp_Pattern_Step_Glide_Accent_14'
p2957
aa(lp2958
(I0
I127
I1
tp2959
ag2899
aS'Arp Pattern Step/Glide/Accent 15'
p2960
ag2960
ag849
aS'Arp_Pattern_Step_Glide_Accent_15'
p2961
aa(lp2962
(I0
I127
I1
tp2963
ag2899
aS'Arp Pattern Step/Glide/Accent 16'
p2964
ag2964
ag849
aS'Arp_Pattern_Step_Glide_Accent_16'
p2965
aa(lp2966
(I0
I127
I1
tp2967
ag2899
aS'Arp Pattern Timing/Length 1'
p2968
ag2968
ag849
aS'Arp_Pattern_Timing_Length_1'
p2969
aa(lp2970
(I0
I127
I1
tp2971
ag2899
aS'Arp Pattern Timing/Length 2'
p2972
ag2972
ag849
aS'Arp_Pattern_Timing_Length_2'
p2973
aa(lp2974
(I0
I127
I1
tp2975
ag2899
aS'Arp Pattern Timing/Length 3'
p2976
ag2976
ag849
aS'Arp_Pattern_Timing_Length_3'
p2977
aa(lp2978
(I0
I127
I1
tp2979
ag2899
aS'Arp Pattern Timing/Length 4'
p2980
ag2980
ag849
aS'Arp_Pattern_Timing_Length_4'
p2981
aa(lp2982
(I0
I127
I1
tp2983
ag2899
aS'Arp Pattern Timing/Length 5'
p2984
ag2984
ag849
aS'Arp_Pattern_Timing_Length_5'
p2985
aa(lp2986
(I0
I127
I1
tp2987
ag2899
aS'Arp Pattern Timing/Length 6'
p2988
ag2988
ag849
aS'Arp_Pattern_Timing_Length_6'
p2989
aa(lp2990
(I0
I127
I1
tp2991
ag2899
aS'Arp Pattern Timing/Length 7'
p2992
ag2992
ag849
aS'Arp_Pattern_Timing_Length_7'
p2993
aa(lp2994
(I0
I127
I1
tp2995
ag2899
aS'Arp Pattern Timing/Length 8'
p2996
ag2996
ag849
aS'Arp_Pattern_Timing_Length_8'
p2997
aa(lp2998
(I0
I127
I1
tp2999
ag2899
aS'Arp Pattern Timing/Length 9'
p3000
ag3000
ag849
aS'Arp_Pattern_Timing_Length_9'
p3001
aa(lp3002
(I0
I127
I1
tp3003
ag2899
aS'Arp Pattern Timing/Length 10'
p3004
ag3004
ag849
aS'Arp_Pattern_Timing_Length_10'
p3005
aa(lp3006
(I0
I127
I1
tp3007
ag2899
aS'Arp Pattern Timing/Length 11'
p3008
ag3008
ag849
aS'Arp_Pattern_Timing_Length_11'
p3009
aa(lp3010
(I0
I127
I1
tp3011
ag2899
aS'Arp Pattern Timing/Length 12'
p3012
ag3012
ag849
aS'Arp_Pattern_Timing_Length_12'
p3013
aa(lp3014
(I0
I127
I1
tp3015
ag2899
aS'Arp Pattern Timing/Length 13'
p3016
ag3016
ag849
aS'Arp_Pattern_Timing_Length_13'
p3017
aa(lp3018
(I0
I127
I1
tp3019
ag2899
aS'Arp Pattern Timing/Length 14'
p3020
ag3020
ag849
aS'Arp_Pattern_Timing_Length_14'
p3021
aa(lp3022
(I0
I127
I1
tp3023
ag2899
aS'Arp Pattern Timing/Length 15'
p3024
ag3024
ag849
aS'Arp_Pattern_Timing_Length_15'
p3025
aa(lp3026
(I0
I127
I1
tp3027
ag2899
aS'Arp Pattern Timing/Length 16'
p3028
ag3028
ag849
aS'Arp_Pattern_Timing_Length_16'
p3029
aag2
ag2
ag2
ag2
a(lp3030
(I32
I127
I1
tp3031
a(S' '
p3032
S'!'
p3033
S'"'
p3034
S'#'
p3035
S'$'
p3036
S'%'
p3037
S'&'
p3038
S"'"
p3039
S'('
p3040
S')'
p3041
S'*'
p3042
S'+'
p3043
S','
p3044
S'-'
p3045
S'.'
p3046
S'/'
p3047
S'0'
p3048
S'1'
p3049
S'2'
p3050
S'3'
p3051
S'4'
p3052
S'5'
p3053
S'6'
p3054
S'7'
p3055
S'8'
p3056
S'9'
p3057
S':'
p3058
S';'
p3059
S'<'
p3060
S'='
p3061
S'>'
p3062
S'?'
p3063
S'@'
p3064
S'A'
p3065
S'B'
p3066
S'C'
p3067
S'D'
p3068
S'E'
p3069
S'F'
p3070
S'G'
p3071
S'H'
p3072
S'I'
p3073
S'J'
p3074
S'K'
p3075
S'L'
p3076
S'M'
p3077
S'N'
p3078
S'O'
p3079
S'P'
p3080
S'Q'
p3081
S'R'
p3082
S'S'
p3083
S'T'
p3084
S'U'
p3085
S'V'
p3086
S'W'
p3087
S'X'
p3088
S'Y'
p3089
S'Z'
p3090
S'['
p3091
S'\\'
p3092
S']'
p3093
S'^'
p3094
S'_'
p3095
S'`'
p3096
S'a'
p3097
S'b'
p3098
S'c'
p3099
S'd'
p3100
S'e'
p3101
S'f'
p3102
S'g'
p3103
S'h'
p3104
S'i'
p3105
S'j'
p3106
S'k'
p3107
S'l'
p3108
S'm'
p3109
S'n'
p3110
S'o'
p3111
S'p'
p3112
S'q'
p3113
S'r'
p3114
S's'
p3115
S't'
p3116
S'u'
p3117
S'v'
p3118
S'w'
p3119
S'x'
p3120
S'y'
p3121
S'z'
p3122
S'{'
p3123
S'|'
p3124
S'}'
p3125
S'~'
p3126
S'\xc2\xb0'
p3127
tp3128
aS'Name Char 00'
p3129
ag3129
ag849
aS'Name_Char_00'
p3130
aa(lp3131
(I32
I127
I1
tp3132
ag3128
aS'Name Char 01'
p3133
ag3133
ag849
aS'Name_Char_01'
p3134
aa(lp3135
(I32
I127
I1
tp3136
ag3128
aS'Name Char 02'
p3137
ag3137
ag849
aS'Name_Char_02'
p3138
aa(lp3139
(I32
I127
I1
tp3140
ag3128
aS'Name Char 03'
p3141
ag3141
ag849
aS'Name_Char_03'
p3142
aa(lp3143
(I32
I127
I1
tp3144
ag3128
aS'Name Char 04'
p3145
ag3145
ag849
aS'Name_Char_04'
p3146
aa(lp3147
(I32
I127
I1
tp3148
ag3128
aS'Name Char 05'
p3149
ag3149
ag849
aS'Name_Char_05'
p3150
aa(lp3151
(I32
I127
I1
tp3152
ag3128
aS'Name Char 06'
p3153
ag3153
ag849
aS'Name_Char_06'
p3154
aa(lp3155
(I32
I127
I1
tp3156
ag3128
aS'Name Char 07'
p3157
ag3157
ag849
aS'Name_Char_07'
p3158
aa(lp3159
(I32
I127
I1
tp3160
ag3128
aS'Name Char 08'
p3161
ag3161
ag849
aS'Name_Char_08'
p3162
aa(lp3163
(I32
I127
I1
tp3164
ag3128
aS'Name Char 09'
p3165
ag3165
ag849
aS'Name_Char_09'
p3166
aa(lp3167
(I32
I127
I1
tp3168
ag3128
aS'Name Char 10'
p3169
ag3169
ag849
aS'Name_Char_10'
p3170
aa(lp3171
(I32
I127
I1
tp3172
ag3128
aS'Name Char 11'
p3173
ag3173
ag849
aS'Name_Char_11'
p3174
aa(lp3175
(I32
I127
I1
tp3176
ag3128
aS'Name Char 12'
p3177
ag3177
ag849
aS'Name_Char_12'
p3178
aa(lp3179
(I32
I127
I1
tp3180
ag3128
aS'Name Char 13'
p3181
ag3181
ag849
aS'Name_Char_13'
p3182
aa(lp3183
(I32
I127
I1
tp3184
ag3128
aS'Name Char 14'
p3185
ag3185
ag849
aS'Name_Char_14'
p3186
aa(lp3187
(I32
I127
I1
tp3188
ag3128
aS'Name Char 15'
p3189
ag3189
ag849
aS'Name_Char_15'
p3190
aa(lp3191
(I0
I12
I1
tp3192
a(lp3193
S'Init'
p3194
aS'Arp '
p3195
aS'Atmo'
p3196
aS'Bass'
p3197
aS'Drum'
p3198
aS'FX  '
p3199
aS'Keys'
p3200
aS'Lead'
p3201
aS'Mono'
p3202
aS'Pad '
p3203
aS'Perc'
p3204
aS'Poly'
p3205
aS'Seq '
p3206
aaS'Category'
p3207
ag3207
ag849
ag3207
aag2
ag2
ag2
a.