(lp0
(S'reserved'
p1
NNNNNtp2
a(lp3
(I16
I112
I12
tp4
a(S"128'"
p5
S"64'"
p6
S"32'"
p7
S"16'"
p8
S"8'"
p9
S"4'"
p10
S"2'"
p11
S"1'"
p12
S"1/2'"
p13
tp14
aS'Osc 1 Octave'
p15
aS'Octave'
p16
aS'Osc 1'
p17
aS'Osc_1_Octave'
p18
aa(lp19
(I52
I76
I1
tp20
a(S'-12'
p21
S'-11'
p22
S'-10'
p23
S'-9'
p24
S'-8'
p25
S'-7'
p26
S'-6'
p27
S'-5'
p28
S'-4'
p29
S'-3'
p30
S'-2'
p31
S'-1'
p32
S'0'
p33
S'+1'
p34
S'+2'
p35
S'+3'
p36
S'+4'
p37
S'+5'
p38
S'+6'
p39
S'+7'
p40
S'+8'
p41
S'+9'
p42
S'+10'
p43
S'+11'
p44
S'+12'
p45
tp46
aS'Osc 1 Semitone'
p47
aS'Semitone'
p48
aS'Osc 1'
p49
aS'Osc_1_Semitone'
p50
aa(lp51
(I0
I127
I1
tp52
a(S'-64'
p53
S'-63'
p54
S'-62'
p55
S'-61'
p56
S'-60'
p57
S'-59'
p58
S'-58'
p59
S'-57'
p60
S'-56'
p61
S'-55'
p62
S'-54'
p63
S'-53'
p64
S'-52'
p65
S'-51'
p66
S'-50'
p67
S'-49'
p68
S'-48'
p69
S'-47'
p70
S'-46'
p71
S'-45'
p72
S'-44'
p73
S'-43'
p74
S'-42'
p75
S'-41'
p76
S'-40'
p77
S'-39'
p78
S'-38'
p79
S'-37'
p80
S'-36'
p81
S'-35'
p82
S'-34'
p83
S'-33'
p84
S'-32'
p85
S'-31'
p86
S'-30'
p87
S'-29'
p88
S'-28'
p89
S'-27'
p90
S'-26'
p91
S'-25'
p92
S'-24'
p93
S'-23'
p94
S'-22'
p95
S'-21'
p96
S'-20'
p97
S'-19'
p98
S'-18'
p99
S'-17'
p100
S'-16'
p101
S'-15'
p102
S'-14'
p103
S'-13'
p104
S'-12'
p105
S'-11'
p106
S'-10'
p107
S'-9'
p108
S'-8'
p109
S'-7'
p110
S'-6'
p111
S'-5'
p112
S'-4'
p113
S'-3'
p114
S'-2'
p115
S'-1'
p116
S'0'
p117
S'+1'
p118
S'+2'
p119
S'+3'
p120
S'+4'
p121
S'+5'
p122
S'+6'
p123
S'+7'
p124
S'+8'
p125
S'+9'
p126
S'+10'
p127
S'+11'
p128
S'+12'
p129
S'+13'
p130
S'+14'
p131
S'+15'
p132
S'+16'
p133
S'+17'
p134
S'+18'
p135
S'+19'
p136
S'+20'
p137
S'+21'
p138
S'+22'
p139
S'+23'
p140
S'+24'
p141
S'+25'
p142
S'+26'
p143
S'+27'
p144
S'+28'
p145
S'+29'
p146
S'+30'
p147
S'+31'
p148
S'+32'
p149
S'+33'
p150
S'+34'
p151
S'+35'
p152
S'+36'
p153
S'+37'
p154
S'+38'
p155
S'+39'
p156
S'+40'
p157
S'+41'
p158
S'+42'
p159
S'+43'
p160
S'+44'
p161
S'+45'
p162
S'+46'
p163
S'+47'
p164
S'+48'
p165
S'+49'
p166
S'+50'
p167
S'+51'
p168
S'+52'
p169
S'+53'
p170
S'+54'
p171
S'+55'
p172
S'+56'
p173
S'+57'
p174
S'+58'
p175
S'+59'
p176
S'+60'
p177
S'+61'
p178
S'+62'
p179
S'+63'
p180
tp181
aS'Osc 1 Detune'
p182
aS'Detune'
p183
aS'Osc 1'
p184
aS'Osc_1_Detune'
p185
aa(lp186
(I40
I88
I1
tp187
a(S'-24'
p188
S'-23'
p189
S'-22'
p190
S'-21'
p191
S'-20'
p192
S'-19'
p193
S'-18'
p194
S'-17'
p195
S'-16'
p196
S'-15'
p197
S'-14'
p198
S'-13'
p199
S'-12'
p200
S'-11'
p201
S'-10'
p202
S'-9'
p203
S'-8'
p204
S'-7'
p205
S'-6'
p206
S'-5'
p207
S'-4'
p208
S'-3'
p209
S'-2'
p210
S'-1'
p211
S'0'
p212
S'+1'
p213
S'+2'
p214
S'+3'
p215
S'+4'
p216
S'+5'
p217
S'+6'
p218
S'+7'
p219
S'+8'
p220
S'+9'
p221
S'+10'
p222
S'+11'
p223
S'+12'
p224
S'+13'
p225
S'+14'
p226
S'+15'
p227
S'+16'
p228
S'+17'
p229
S'+18'
p230
S'+19'
p231
S'+20'
p232
S'+21'
p233
S'+22'
p234
S'+23'
p235
S'+24'
p236
tp237
aS'Osc 1 Bend Range'
p238
aS'Bend Range'
p239
aS'Osc 1'
p240
aS'Osc_1_Bend_Range'
p241
aa(lp242
(I0
I127
I1
tp243
a(S'-200%'
p244
S'-197%'
p245
S'-194%'
p246
S'-191%'
p247
S'-188%'
p248
S'-184%'
p249
S'-181%'
p250
S'-178%'
p251
S'-175%'
p252
S'-172%'
p253
S'-169%'
p254
S'-166%'
p255
S'-163%'
p256
S'-160%'
p257
S'-156%'
p258
S'-153%'
p259
S'-150%'
p260
S'-147%'
p261
S'-144%'
p262
S'-141%'
p263
S'-138%'
p264
S'-135%'
p265
S'-132%'
p266
S'-128%'
p267
S'-125%'
p268
S'-122%'
p269
S'-119%'
p270
S'-116%'
p271
S'-113%'
p272
S'-110%'
p273
S'-107%'
p274
S'-104%'
p275
S'-100%'
p276
S'-97%'
p277
S'-94%'
p278
S'-91%'
p279
S'-88%'
p280
S'-85%'
p281
S'-82%'
p282
S'-79%'
p283
S'-76%'
p284
S'-72%'
p285
S'-69%'
p286
S'-66%'
p287
S'-63%'
p288
S'-60%'
p289
S'-57%'
p290
S'-54%'
p291
S'-51%'
p292
S'-48%'
p293
S'-44%'
p294
S'-41%'
p295
S'-38%'
p296
S'-35%'
p297
S'-32%'
p298
S'-29%'
p299
S'-26%'
p300
S'-23%'
p301
S'-20%'
p302
S'-16%'
p303
S'-13%'
p304
S'-10%'
p305
S'-7%'
p306
S'-4%'
p307
S'+-1%'
p308
S'+3%'
p309
S'+6%'
p310
S'+9%'
p311
S'+13%'
p312
S'+16%'
p313
S'+19%'
p314
S'+22%'
p315
S'+25%'
p316
S'+28%'
p317
S'+31%'
p318
S'+34%'
p319
S'+37%'
p320
S'+41%'
p321
S'+44%'
p322
S'+47%'
p323
S'+50%'
p324
S'+53%'
p325
S'+56%'
p326
S'+59%'
p327
S'+62%'
p328
S'+65%'
p329
S'+69%'
p330
S'+72%'
p331
S'+75%'
p332
S'+78%'
p333
S'+81%'
p334
S'+84%'
p335
S'+87%'
p336
S'+90%'
p337
S'+93%'
p338
S'+97%'
p339
S'+100%'
p340
S'+103%'
p341
S'+106%'
p342
S'+109%'
p343
S'+112%'
p344
S'+115%'
p345
S'+118%'
p346
S'+121%'
p347
S'+125%'
p348
S'+128%'
p349
S'+131%'
p350
S'+134%'
p351
S'+137%'
p352
S'+140%'
p353
S'+143%'
p354
S'+146%'
p355
S'+149%'
p356
S'+153%'
p357
S'+156%'
p358
S'+159%'
p359
S'+162%'
p360
S'+165%'
p361
S'+168%'
p362
S'+171%'
p363
S'+174%'
p364
S'+177%'
p365
S'+181%'
p366
S'+184%'
p367
S'+187%'
p368
S'+190%'
p369
S'+193%'
p370
S'+196%'
p371
tp372
aS'Osc 1 Keytrack'
p373
aS'Keytrack'
p374
aS'Osc 1'
p375
aS'Osc_1_Keytrack'
p376
aa(lp377
(I0
I11
I1
tp378
a(lp379
S'off'
p380
aS'Osc 1'
p381
aS'Osc 2'
p382
aS'Osc 3'
p383
aS'Noise'
p384
aS'LFO 1'
p385
aS'LFO 2'
p386
aS'LFO 3'
p387
aS'FilterEnv'
p388
aS'AmpEnv'
p389
aS'Env3'
p390
aS'Env4'
p391
aaS'Osc 1 FM Source'
p392
aS'FM Source'
p393
aS'Osc 1'
p394
aS'Osc_1_FM_Source'
p395
aa(lp396
(I0
I127
I1
tp397
a(S'0'
p398
S'1'
p399
S'2'
p400
S'3'
p401
S'4'
p402
S'5'
p403
S'6'
p404
S'7'
p405
S'8'
p406
S'9'
p407
S'10'
p408
S'11'
p409
S'12'
p410
S'13'
p411
S'14'
p412
S'15'
p413
S'16'
p414
S'17'
p415
S'18'
p416
S'19'
p417
S'20'
p418
S'21'
p419
S'22'
p420
S'23'
p421
S'24'
p422
S'25'
p423
S'26'
p424
S'27'
p425
S'28'
p426
S'29'
p427
S'30'
p428
S'31'
p429
S'32'
p430
S'33'
p431
S'34'
p432
S'35'
p433
S'36'
p434
S'37'
p435
S'38'
p436
S'39'
p437
S'40'
p438
S'41'
p439
S'42'
p440
S'43'
p441
S'44'
p442
S'45'
p443
S'46'
p444
S'47'
p445
S'48'
p446
S'49'
p447
S'50'
p448
S'51'
p449
S'52'
p450
S'53'
p451
S'54'
p452
S'55'
p453
S'56'
p454
S'57'
p455
S'58'
p456
S'59'
p457
S'60'
p458
S'61'
p459
S'62'
p460
S'63'
p461
S'64'
p462
S'65'
p463
S'66'
p464
S'67'
p465
S'68'
p466
S'69'
p467
S'70'
p468
S'71'
p469
S'72'
p470
S'73'
p471
S'74'
p472
S'75'
p473
S'76'
p474
S'77'
p475
S'78'
p476
S'79'
p477
S'80'
p478
S'81'
p479
S'82'
p480
S'83'
p481
S'84'
p482
S'85'
p483
S'86'
p484
S'87'
p485
S'88'
p486
S'89'
p487
S'90'
p488
S'91'
p489
S'92'
p490
S'93'
p491
S'94'
p492
S'95'
p493
S'96'
p494
S'97'
p495
S'98'
p496
S'99'
p497
S'100'
p498
S'101'
p499
S'102'
p500
S'103'
p501
S'104'
p502
S'105'
p503
S'106'
p504
S'107'
p505
S'108'
p506
S'109'
p507
S'110'
p508
S'111'
p509
S'112'
p510
S'113'
p511
S'114'
p512
S'115'
p513
S'116'
p514
S'117'
p515
S'118'
p516
S'119'
p517
S'120'
p518
S'121'
p519
S'122'
p520
S'123'
p521
S'124'
p522
S'125'
p523
S'126'
p524
S'127'
p525
tp526
aS'Osc 1 FM Amount'
p527
aS'FM Amount'
p528
aS'Osc 1'
p529
aS'Osc_1_FM_Amount'
p530
aa(lp531
(I0
I72
I53
tp532
a(lp533
S'off'
p534
aS'Pulse'
p535
aS'Saw'
p536
aS'Triangle'
p537
aS'Sine'
p538
aS'Alt 1'
p539
aS'Alt 2'
p540
aS'Resonant'
p541
aS'Resonant2'
p542
aS'MalletSyn'
p543
aS'Sqr-Sweep'
p544
aS'Bellish'
p545
aS'Pul-Sweep'
p546
aS'Saw-Sweep'
p547
aS'MellowSaw'
p548
aS'Feedback'
p549
aS'Add Harm'
p550
aS'Reso 3 HP'
p551
aS'Wind Syn'
p552
aS'High Harm'
p553
aS'Clipper'
p554
aS'Organ Syn'
p555
aS'SquareSaw'
p556
aS'Formant 1'
p557
aS'Polated'
p558
aS'Transient'
p559
aS'ElectricP'
p560
aS'Robotic'
p561
aS'StrongHrm'
p562
aS'PercOrgan'
p563
aS'ClipSweep'
p564
aS'ResoHarms'
p565
aS'2 Echoes'
p566
aS'Formant 2'
p567
aS'FmntVocal'
p568
aS'MicroSync'
p569
aS'Micro PWM'
p570
aS'Glassy'
p571
aS'Square HP'
p572
aS'SawSync 1'
p573
aS'SawSync 2'
p574
aS'SawSync 3'
p575
aS'PulSync 1'
p576
aS'PulSync 2'
p577
aS'PulSync 3'
p578
aS'SinSync 1'
p579
aS'SinSync 2'
p580
aS'SinSync 3'
p581
aS'PWM Pulse'
p582
aS'PWM Saw'
p583
aS'Fuzz Wave'
p584
aS'Distorted'
p585
aS'HeavyFuzz'
p586
aS'Fuzz Sync'
p587
aS'K+Strong1'
p588
aS'K+Strong2'
p589
aS'K+Strong3'
p590
aS'1-2-3-4-5'
p591
aS'19/twenty'
p592
aS'Wavetrip1'
p593
aS'Wavetrip2'
p594
aS'Wavetrip3'
p595
aS'Wavetrip4'
p596
aS'MaleVoice'
p597
aS'Low Piano'
p598
aS'ResoSweep'
p599
aS'Xmas Bell'
p600
aS'FM Piano'
p601
aS'Fat Organ'
p602
aS'Vibes'
p603
aS'Chorus 2'
p604
aS'True PWM'
p605
aS'UpperWaves'
p606
ag1
ag1
ag1
ag1
ag1
ag1
ag1
ag1
ag1
ag1
ag1
ag1
ag1
aS'User Wt. 1'
p607
aS'User Wt. 2'
p608
aS'User Wt. 3'
p609
aS'User Wt. 4'
p610
aS'User Wt. 5'
p611
aS'User Wt. 6'
p612
aS'User Wt. 7'
p613
aS'User Wt. 8'
p614
aS'User Wt. 9'
p615
aS'User Wt. 10'
p616
aS'User Wt. 11'
p617
aS'User Wt. 12'
p618
aS'User Wt. 13'
p619
aS'User Wt. 14'
p620
aS'User Wt. 15'
p621
aS'User Wt. 16'
p622
aS'User Wt. 17'
p623
aS'User Wt. 18'
p624
aS'User Wt. 19'
p625
aS'User Wt. 20'
p626
aS'User Wt. 21'
p627
aS'User Wt. 22'
p628
aS'User Wt. 23'
p629
aS'User Wt. 24'
p630
aS'User Wt. 25'
p631
aS'User Wt. 26'
p632
aS'User Wt. 27'
p633
aS'User Wt. 28'
p634
aS'User Wt. 29'
p635
aS'User Wt. 30'
p636
aS'User Wt. 31'
p637
aS'User Wt. 32'
p638
aS'User Wt. 33'
p639
aS'User Wt. 34'
p640
aS'User Wt. 35'
p641
aS'User Wt. 36'
p642
aS'User Wt. 37'
p643
aS'User Wt. 38'
p644
aS'User Wt. 39'
p645
aaS'Osc 1 Shape'
p646
aS'Shape'
p647
aS'Osc 1'
p648
aS'Osc_1_Shape'
p649
aa(lp650
(I0
I127
I1
tp651
ag526
aS'Osc 1 Pulsewidth'
p652
aS'Pulsewidth'
p653
aS'Osc 1'
p654
aS'Osc_1_Pulsewidth'
p655
aa(lp656
(I0
I30
I1
tp657
a(lp658
S'off'
p659
aS'LFO 1'
p660
aS'LFO1*MW'
p661
aS'LFO 2'
p662
aS'LFO2*Press'
p663
aS'LFO 3'
p664
aS'FilterEnv'
p665
aS'AmpEnv'
p666
aS'Env3'
p667
aS'Env4'
p668
aS'Keytrack'
p669
aS'Velocity'
p670
aS'Rel. Velo'
p671
aS'Pressure'
p672
aS'Poly Press'
p673
aS'Pitch Bend'
p674
aS'Mod Wheel'
p675
aS'Sustain'
p676
aS'Foot Ctrl'
p677
aS'BreathCtrl'
p678
aS'Control W'
p679
aS'Control X'
p680
aS'Control Y'
p681
aS'Control Z'
p682
aS'Unisono V.'
p683
aS'Modifier 1'
p684
aS'Modifier 2'
p685
aS'Modifier 3'
p686
aS'Modifier 4'
p687
aS'minimum'
p688
aS'MAXIMUM'
p689
aaS'Osc 1 PWM Source'
p690
aS'PWM Source'
p691
aS'Osc 1'
p692
aS'Osc_1_PWM_Source'
p693
aa(lp694
(I0
I127
I1
tp695
ag181
aS'Osc 1 PWM Amount'
p696
aS'PWM Amount'
p697
aS'Osc 1'
p698
aS'Osc_1_PWM_Amount'
p699
aag2
ag2
a(lp700
(I0
I1
I1
tp701
a(S'on'
p702
S'off'
p703
tp704
aS'Osc 1 Limit WT'
p705
aS'Limit WT'
p706
aS'Osc 1'
p707
aS'Osc_1_Limit_WT'
p708
aag2
a(lp709
(I0
I127
I1
tp710
ag526
aS'Osc 1 Brilliance'
p711
aS'Brilliance'
p712
aS'Osc 1'
p713
aS'Osc_1_Brilliance'
p714
aa(lp715
(I16
I112
I12
tp716
ag14
aS'Osc 2 Octave'
p717
aS'Octave'
p718
aS'Osc 2'
p719
aS'Osc_2_Octave'
p720
aa(lp721
(I52
I76
I1
tp722
ag46
aS'Osc 2 Semitone'
p723
aS'Semitone'
p724
aS'Osc 2'
p725
aS'Osc_2_Semitone'
p726
aa(lp727
(I0
I127
I1
tp728
ag181
aS'Osc 2 Detune'
p729
aS'Detune'
p730
aS'Osc 2'
p731
aS'Osc_2_Detune'
p732
aa(lp733
(I40
I88
I1
tp734
ag237
aS'Osc 2 Bend Range'
p735
aS'Bend Range'
p736
aS'Osc 2'
p737
aS'Osc_2_Bend_Range'
p738
aa(lp739
(I0
I127
I1
tp740
ag372
aS'Osc 2 Keytrack'
p741
aS'Keytrack'
p742
aS'Osc 2'
p743
aS'Osc_2_Keytrack'
p744
aa(lp745
(I0
I11
I1
tp746
ag379
aS'Osc 2 FM Source'
p747
aS'FM Source'
p748
aS'Osc 2'
p749
aS'Osc_2_FM_Source'
p750
aa(lp751
(I0
I127
I1
tp752
ag526
aS'Osc 2 FM Amount'
p753
aS'FM Amount'
p754
aS'Osc 2'
p755
aS'Osc_2_FM_Amount'
p756
aa(lp757
(I0
I72
I53
tp758
a(lp759
g534
ag535
ag536
ag537
ag538
ag539
ag540
ag541
ag542
ag543
ag544
ag545
ag546
ag547
ag548
ag549
ag550
ag551
ag552
ag553
ag554
ag555
ag556
ag557
ag558
ag559
ag560
ag561
ag562
ag563
ag564
ag565
ag566
ag567
ag568
ag569
ag570
ag571
ag572
ag573
ag574
ag575
ag576
ag577
ag578
ag579
ag580
ag581
ag582
ag583
ag584
ag585
ag586
ag587
ag588
ag589
ag590
ag591
ag592
ag593
ag594
ag595
ag596
ag597
ag598
ag599
ag600
ag601
ag602
ag603
ag604
ag605
ag606
ag1
ag1
ag1
ag1
ag1
ag1
ag1
ag1
ag1
ag1
ag1
ag1
ag1
aS'User Wt. 1'
p760
aS'User Wt. 2'
p761
aS'User Wt. 3'
p762
aS'User Wt. 4'
p763
aS'User Wt. 5'
p764
aS'User Wt. 6'
p765
aS'User Wt. 7'
p766
aS'User Wt. 8'
p767
aS'User Wt. 9'
p768
aS'User Wt. 10'
p769
aS'User Wt. 11'
p770
aS'User Wt. 12'
p771
aS'User Wt. 13'
p772
aS'User Wt. 14'
p773
aS'User Wt. 15'
p774
aS'User Wt. 16'
p775
aS'User Wt. 17'
p776
aS'User Wt. 18'
p777
aS'User Wt. 19'
p778
aS'User Wt. 20'
p779
aS'User Wt. 21'
p780
aS'User Wt. 22'
p781
aS'User Wt. 23'
p782
aS'User Wt. 24'
p783
aS'User Wt. 25'
p784
aS'User Wt. 26'
p785
aS'User Wt. 27'
p786
aS'User Wt. 28'
p787
aS'User Wt. 29'
p788
aS'User Wt. 30'
p789
aS'User Wt. 31'
p790
aS'User Wt. 32'
p791
aS'User Wt. 33'
p792
aS'User Wt. 34'
p793
aS'User Wt. 35'
p794
aS'User Wt. 36'
p795
aS'User Wt. 37'
p796
aS'User Wt. 38'
p797
aS'User Wt. 39'
p798
aaS'Osc 2 Shape'
p799
aS'Shape'
p800
aS'Osc 2'
p801
aS'Osc_2_Shape'
p802
aa(lp803
(I0
I127
I1
tp804
ag526
aS'Osc 2 Pulsewidth'
p805
aS'Pulsewidth'
p806
aS'Osc 2'
p807
aS'Osc_2_Pulsewidth'
p808
aa(lp809
(I0
I30
I1
tp810
ag658
aS'Osc 2 PWM Source'
p811
aS'PWM Source'
p812
aS'Osc 2'
p813
aS'Osc_2_PWM_Source'
p814
aa(lp815
(I0
I127
I1
tp816
ag181
aS'Osc 2 PWM Amount'
p817
aS'PWM Amount'
p818
aS'Osc 2'
p819
aS'Osc_2_PWM_Amount'
p820
aag2
ag2
a(lp821
(I0
I1
I1
tp822
ag704
aS'Osc 2 Limit WT'
p823
aS'Limit WT'
p824
aS'Osc 2'
p825
aS'Osc_2_Limit_WT'
p826
aag2
a(lp827
(I0
I127
I1
tp828
ag526
aS'Osc 2 Brilliance'
p829
aS'Brilliance'
p830
aS'Osc 2'
p831
aS'Osc_2_Brilliance'
p832
aa(lp833
(I16
I112
I12
tp834
ag14
aS'Osc 3 Octave'
p835
aS'Octave'
p836
aS'Osc 3'
p837
aS'Osc_3_Octave'
p838
aa(lp839
(I52
I76
I1
tp840
ag46
aS'Osc 3 Semitone'
p841
aS'Semitone'
p842
aS'Osc 3'
p843
aS'Osc_3_Semitone'
p844
aa(lp845
(I0
I127
I1
tp846
ag181
aS'Osc 3 Detune'
p847
aS'Detune'
p848
aS'Osc 3'
p849
aS'Osc_3_Detune'
p850
aa(lp851
(I40
I88
I1
tp852
ag237
aS'Osc 3 Bend Range'
p853
aS'Bend Range'
p854
aS'Osc 3'
p855
aS'Osc_3_Bend_Range'
p856
aa(lp857
(I0
I127
I1
tp858
ag372
aS'Osc 3 Keytrack'
p859
aS'Keytrack'
p860
aS'Osc 3'
p861
aS'Osc_3_Keytrack'
p862
aa(lp863
(I0
I11
I1
tp864
ag379
aS'Osc 3 FM Source'
p865
aS'FM Source'
p866
aS'Osc 3'
p867
aS'Osc_3_FM_Source'
p868
aa(lp869
(I0
I127
I1
tp870
ag526
aS'Osc 3 FM Amount'
p871
aS'FM Amount'
p872
aS'Osc 3'
p873
aS'Osc_3_FM_Amount'
p874
aa(lp875
(I0
I4
I53
tp876
a(lp877
g534
ag535
ag536
ag537
ag538
aaS'Osc 3 Shape'
p878
aS'Shape'
p879
aS'Osc 3'
p880
aS'Osc_3_Shape'
p881
aa(lp882
(I0
I127
I1
tp883
ag526
aS'Osc 3 Pulsewidth'
p884
aS'Pulsewidth'
p885
aS'Osc 3'
p886
aS'Osc_3_Pulsewidth'
p887
aa(lp888
(I0
I30
I1
tp889
ag658
aS'Osc 3 PWM Source'
p890
aS'PWM Source'
p891
aS'Osc 3'
p892
aS'Osc_3_PWM_Source'
p893
aa(lp894
(I0
I127
I1
tp895
ag181
aS'Osc 3 PWM Amount'
p896
aS'PWM Amount'
p897
aS'Osc 3'
p898
aS'Osc_3_PWM_Amount'
p899
aag2
ag2
ag2
ag2
a(lp900
(I0
I127
I1
tp901
ag526
aS'Osc 3 Brilliance'
p902
aS'Brilliance'
p903
aS'Osc 3'
p904
aS'Osc_3_Brilliance'
p905
aa(lp906
(I0
I1
I1
tp907
a(g703
g702
tp908
aS'Osc 2 Sync to O3'
p909
aS'Sync to O3'
p910
aS'Osc 2'
p911
aS'Osc_2_Sync_to_O3'
p912
aa(lp913
(I0
I30
I1
tp914
ag658
aS'Osc Pitch Source'
p915
aS'Source'
p916
aS'Osc Pitch'
p917
aS'Osc_Pitch_Source'
p918
aa(lp919
(I0
I127
I1
tp920
ag181
aS'Osc Pitch Amount'
p921
aS'Amount'
p922
aS'Osc Pitch'
p923
aS'Osc_Pitch_Amount'
p924
aag2
a(lp925
(I0
I1
I1
tp926
ag908
aS'Glide'
p927
aS''
p928
ag927
ag927
aag2
ag2
a(lp929
(I0
I3
I1
tp930
a(lp931
S'Portamento'
p932
aS'fingered P'
p933
aS'Glissando'
p934
aS'fingered G'
p935
aaS'Glide Mode'
p936
aS'Mode'
p937
aS'Glide'
p938
aS'Glide_Mode'
p939
aa(lp940
(I0
I127
I1
tp941
ag526
aS'Glide Rate'
p942
aS'Rate'
p943
aS'Glide'
p944
aS'Glide_Rate'
p945
aa(lp946
(I0
I127
I1
tp947
ag526
aS'Allocation Mode and Unisono'
p948
ag948
ag928
aS'Allocation_Mode_and_Unisono'
p949
aa(lp950
(I0
I127
I1
tp951
ag526
aS'Unisono Uni Detune'
p952
ag952
ag928
aS'Unisono_Uni_Detune'
p953
aag2
a(lp954
(I0
I127
I1
tp955
ag526
aS'Mixer Osc 1 Level'
p956
aS'Level'
p957
aS'Mixer Osc 1'
p958
aS'Mixer_Osc_1_Level'
p959
aa(lp960
(I0
I127
I1
tp961
a(S'F1 64'
p962
S'F1 63'
p963
S'F1 62'
p964
S'F1 61'
p965
S'F1 60'
p966
S'F1 59'
p967
S'F1 58'
p968
S'F1 57'
p969
S'F1 56'
p970
S'F1 55'
p971
S'F1 54'
p972
S'F1 53'
p973
S'F1 52'
p974
S'F1 51'
p975
S'F1 50'
p976
S'F1 49'
p977
S'F1 48'
p978
S'F1 47'
p979
S'F1 46'
p980
S'F1 45'
p981
S'F1 44'
p982
S'F1 43'
p983
S'F1 42'
p984
S'F1 41'
p985
S'F1 40'
p986
S'F1 39'
p987
S'F1 38'
p988
S'F1 37'
p989
S'F1 36'
p990
S'F1 35'
p991
S'F1 34'
p992
S'F1 33'
p993
S'F1 32'
p994
S'F1 31'
p995
S'F1 30'
p996
S'F1 29'
p997
S'F1 28'
p998
S'F1 27'
p999
S'F1 26'
p1000
S'F1 25'
p1001
S'F1 24'
p1002
S'F1 23'
p1003
S'F1 22'
p1004
S'F1 21'
p1005
S'F1 20'
p1006
S'F1 19'
p1007
S'F1 18'
p1008
S'F1 17'
p1009
S'F1 16'
p1010
S'F1 15'
p1011
S'F1 14'
p1012
S'F1 13'
p1013
S'F1 12'
p1014
S'F1 11'
p1015
S'F1 10'
p1016
S'F1 9'
p1017
S'F1 8'
p1018
S'F1 7'
p1019
S'F1 6'
p1020
S'F1 5'
p1021
S'F1 4'
p1022
S'F1 3'
p1023
S'F1 2'
p1024
S'F1 1'
p1025
S'middle'
p1026
S'F2 1'
p1027
S'F2 2'
p1028
S'F2 3'
p1029
S'F2 4'
p1030
S'F2 5'
p1031
S'F2 6'
p1032
S'F2 7'
p1033
S'F2 8'
p1034
S'F2 9'
p1035
S'F2 10'
p1036
S'F2 11'
p1037
S'F2 12'
p1038
S'F2 13'
p1039
S'F2 14'
p1040
S'F2 15'
p1041
S'F2 16'
p1042
S'F2 17'
p1043
S'F2 18'
p1044
S'F2 19'
p1045
S'F2 20'
p1046
S'F2 21'
p1047
S'F2 22'
p1048
S'F2 23'
p1049
S'F2 24'
p1050
S'F2 25'
p1051
S'F2 26'
p1052
S'F2 27'
p1053
S'F2 28'
p1054
S'F2 29'
p1055
S'F2 30'
p1056
S'F2 31'
p1057
S'F2 32'
p1058
S'F2 33'
p1059
S'F2 34'
p1060
S'F2 35'
p1061
S'F2 36'
p1062
S'F2 37'
p1063
S'F2 38'
p1064
S'F2 39'
p1065
S'F2 40'
p1066
S'F2 41'
p1067
S'F2 42'
p1068
S'F2 43'
p1069
S'F2 44'
p1070
S'F2 45'
p1071
S'F2 46'
p1072
S'F2 47'
p1073
S'F2 48'
p1074
S'F2 49'
p1075
S'F2 50'
p1076
S'F2 51'
p1077
S'F2 52'
p1078
S'F2 53'
p1079
S'F2 54'
p1080
S'F2 55'
p1081
S'F2 56'
p1082
S'F2 57'
p1083
S'F2 58'
p1084
S'F2 59'
p1085
S'F2 60'
p1086
S'F2 61'
p1087
S'F2 62'
p1088
S'F2 63'
p1089
tp1090
aS'Mixer Osc 1 Balance'
p1091
aS'Balance'
p1092
aS'Mixer Osc 1'
p1093
aS'Mixer_Osc_1_Balance'
p1094
aa(lp1095
(I0
I127
I1
tp1096
ag526
aS'Mixer Osc 2 Level'
p1097
aS'Level'
p1098
aS'Mixer Osc 2'
p1099
aS'Mixer_Osc_2_Level'
p1100
aa(lp1101
(I0
I127
I1
tp1102
ag1090
aS'Mixer Osc 2 Balance'
p1103
aS'Balance'
p1104
aS'Mixer Osc 2'
p1105
aS'Mixer_Osc_2_Balance'
p1106
aa(lp1107
(I0
I127
I1
tp1108
ag526
aS'Mixer Osc 3 Level'
p1109
aS'Level'
p1110
aS'Mixer Osc 3'
p1111
aS'Mixer_Osc_3_Level'
p1112
aa(lp1113
(I0
I127
I1
tp1114
ag1090
aS'Mixer Osc 3 Balance'
p1115
aS'Balance'
p1116
aS'Mixer Osc 3'
p1117
aS'Mixer_Osc_3_Balance'
p1118
aa(lp1119
(I0
I127
I1
tp1120
ag526
aS'Mixer Noise Level'
p1121
aS'Level'
p1122
aS'Mixer Noise'
p1123
aS'Mixer_Noise_Level'
p1124
aa(lp1125
(I0
I127
I1
tp1126
ag1090
aS'Mixer Noise Balance'
p1127
aS'Balance'
p1128
aS'Mixer Noise'
p1129
aS'Mixer_Noise_Balance'
p1130
aa(lp1131
(I0
I127
I1
tp1132
ag181
aS'Mixer Noise Colour'
p1133
aS'Colour'
p1134
aS'Mixer Noise'
p1135
aS'Mixer_Noise_Colour'
p1136
aag2
a(lp1137
(I0
I127
I1
tp1138
ag526
aS'Mixer RingMod Level'
p1139
aS'Level'
p1140
aS'Mixer RingMod'
p1141
aS'Mixer_RingMod_Level'
p1142
aa(lp1143
(I0
I127
I1
tp1144
ag1090
aS'Mixer RingMod Balance'
p1145
aS'Balance'
p1146
aS'Mixer RingMod'
p1147
aS'Mixer_RingMod_Balance'
p1148
aag2
ag2
ag2
ag2
a(lp1149
(I0
I11
I1
tp1150
a(lp1151
S'Bypass'
p1152
aS'LP 24dB'
p1153
aS'LP 12dB'
p1154
aS'BP 24dB'
p1155
aS'BP 12dB'
p1156
aS'HP 24dB'
p1157
aS'HP 12dB'
p1158
aS'Notch24dB'
p1159
aS'Notch12dB'
p1160
aS'Comb+'
p1161
aS'Comb-'
p1162
aS'PPG LP'
p1163
aaS'Filter 1 Type'
p1164
aS'Type'
p1165
aS'Filter 1'
p1166
aS'Filter_1_Type'
p1167
aa(lp1168
(I0
I127
I1
tp1169
ag526
aS'Filter 1 Cutoff'
p1170
aS'Cutoff'
p1171
aS'Filter 1'
p1172
aS'Filter_1_Cutoff'
p1173
aag2
a(lp1174
(I0
I127
I1
tp1175
ag526
aS'Filter 1 Resonance'
p1176
aS'Resonance'
p1177
aS'Filter 1'
p1178
aS'Filter_1_Resonance'
p1179
aa(lp1180
(I0
I127
I1
tp1181
ag526
aS'Filter 1 Drive'
p1182
aS'Drive'
p1183
aS'Filter 1'
p1184
aS'Filter_1_Drive'
p1185
aa(lp1186
(I0
I12
I1
tp1187
a(lp1188
S'Clipping'
p1189
aS'Tube'
p1190
aS'Hard'
p1191
aS'Medium'
p1192
aS'Soft'
p1193
aS'Pickup 1'
p1194
aS'Pickup 2'
p1195
aS'Rectifier'
p1196
aS'Square'
p1197
aS'Binary'
p1198
aS'Overflow'
p1199
aS'Sine Shaper'
p1200
aS'Osc 1 Mod'
p1201
aaS'Filter 1 Drive Curve'
p1202
aS'Drive Curve'
p1203
aS'Filter 1'
p1204
aS'Filter_1_Drive_Curve'
p1205
aag2
ag2
ag2
a(lp1206
(I0
I127
I1
tp1207
ag372
aS'Filter 1 Keytrack'
p1208
aS'Keytrack'
p1209
aS'Filter 1'
p1210
aS'Filter_1_Keytrack'
p1211
aa(lp1212
(I0
I127
I1
tp1213
ag181
aS'Filter 1 Env Amount'
p1214
aS'Env Amount'
p1215
aS'Filter 1'
p1216
aS'Filter_1_Env_Amount'
p1217
aa(lp1218
(I0
I127
I1
tp1219
ag181
aS'Filter 1 Env Velocity'
p1220
aS'Env Velocity'
p1221
aS'Filter 1'
p1222
aS'Filter_1_Env_Velocity'
p1223
aa(lp1224
(I0
I30
I1
tp1225
ag658
aS'Filter 1 Mod Source'
p1226
aS'Mod Source'
p1227
aS'Filter 1'
p1228
aS'Filter_1_Mod_Source'
p1229
aa(lp1230
(I0
I127
I1
tp1231
ag181
aS'Filter 1 Mod Amount'
p1232
aS'Mod Amount'
p1233
aS'Filter 1'
p1234
aS'Filter_1_Mod_Amount'
p1235
aa(lp1236
(I0
I11
I1
tp1237
ag379
aS'Filter 1 FM Source'
p1238
aS'FM Source'
p1239
aS'Filter 1'
p1240
aS'Filter_1_FM_Source'
p1241
aa(lp1242
(I0
I127
I1
tp1243
a(g703
g399
g400
g401
g402
g403
g404
g405
g406
g407
g408
g409
g410
g411
g412
g413
g414
g415
g416
g417
g418
g419
g420
g421
g422
g423
g424
g425
g426
g427
g428
g429
g430
g431
g432
g433
g434
g435
g436
g437
g438
g439
g440
g441
g442
g443
g444
g445
g446
g447
g448
g449
g450
g451
g452
g453
g454
g455
g456
g457
g458
g459
g460
g461
g462
g463
g464
g465
g466
g467
g468
g469
g470
g471
g472
g473
g474
g475
g476
g477
g478
g479
g480
g481
g482
g483
g484
g485
g486
g487
g488
g489
g490
g491
g492
g493
g494
g495
g496
g497
g498
g499
g500
g501
g502
g503
g504
g505
g506
g507
g508
g509
g510
g511
g512
g513
g514
g515
g516
g517
g518
g519
g520
g521
g522
g523
g524
g525
tp1244
aS'Filter 1 FM Amount'
p1245
aS'FM Amount'
p1246
aS'Filter 1'
p1247
aS'Filter_1_FM_Amount'
p1248
aa(lp1249
(I0
I127
I1
tp1250
a(S'left 64'
p1251
S'left 63'
p1252
S'left 62'
p1253
S'left 61'
p1254
S'left 60'
p1255
S'left 59'
p1256
S'left 58'
p1257
S'left 57'
p1258
S'left 56'
p1259
S'left 55'
p1260
S'left 54'
p1261
S'left 53'
p1262
S'left 52'
p1263
S'left 51'
p1264
S'left 50'
p1265
S'left 49'
p1266
S'left 48'
p1267
S'left 47'
p1268
S'left 46'
p1269
S'left 45'
p1270
S'left 44'
p1271
S'left 43'
p1272
S'left 42'
p1273
S'left 41'
p1274
S'left 40'
p1275
S'left 39'
p1276
S'left 38'
p1277
S'left 37'
p1278
S'left 36'
p1279
S'left 35'
p1280
S'left 34'
p1281
S'left 33'
p1282
S'left 32'
p1283
S'left 31'
p1284
S'left 30'
p1285
S'left 29'
p1286
S'left 28'
p1287
S'left 27'
p1288
S'left 26'
p1289
S'left 25'
p1290
S'left 24'
p1291
S'left 23'
p1292
S'left 22'
p1293
S'left 21'
p1294
S'left 20'
p1295
S'left 19'
p1296
S'left 18'
p1297
S'left 17'
p1298
S'left 16'
p1299
S'left 15'
p1300
S'left 14'
p1301
S'left 13'
p1302
S'left 12'
p1303
S'left 11'
p1304
S'left 10'
p1305
S'left 9'
p1306
S'left 8'
p1307
S'left 7'
p1308
S'left 6'
p1309
S'left 5'
p1310
S'left 4'
p1311
S'left 3'
p1312
S'left 2'
p1313
S'left 1'
p1314
S'center'
p1315
S'right 1'
p1316
S'right 2'
p1317
S'right 3'
p1318
S'right 4'
p1319
S'right 5'
p1320
S'right 6'
p1321
S'right 7'
p1322
S'right 8'
p1323
S'right 9'
p1324
S'right 10'
p1325
S'right 11'
p1326
S'right 12'
p1327
S'right 13'
p1328
S'right 14'
p1329
S'right 15'
p1330
S'right 16'
p1331
S'right 17'
p1332
S'right 18'
p1333
S'right 19'
p1334
S'right 20'
p1335
S'right 21'
p1336
S'right 22'
p1337
S'right 23'
p1338
S'right 24'
p1339
S'right 25'
p1340
S'right 26'
p1341
S'right 27'
p1342
S'right 28'
p1343
S'right 29'
p1344
S'right 30'
p1345
S'right 31'
p1346
S'right 32'
p1347
S'right 33'
p1348
S'right 34'
p1349
S'right 35'
p1350
S'right 36'
p1351
S'right 37'
p1352
S'right 38'
p1353
S'right 39'
p1354
S'right 40'
p1355
S'right 41'
p1356
S'right 42'
p1357
S'right 43'
p1358
S'right 44'
p1359
S'right 45'
p1360
S'right 46'
p1361
S'right 47'
p1362
S'right 48'
p1363
S'right 49'
p1364
S'right 50'
p1365
S'right 51'
p1366
S'right 52'
p1367
S'right 53'
p1368
S'right 54'
p1369
S'right 55'
p1370
S'right 56'
p1371
S'right 57'
p1372
S'right 58'
p1373
S'right 59'
p1374
S'right 60'
p1375
S'right 61'
p1376
S'right 62'
p1377
S'right 63'
p1378
tp1379
aS'Filter 1 Pan'
p1380
aS'Pan'
p1381
aS'Filter 1'
p1382
aS'Filter_1_Pan'
p1383
aa(lp1384
(I0
I30
I1
tp1385
ag658
aS'Filter 1 Pan Source'
p1386
aS'Pan Source'
p1387
aS'Filter 1'
p1388
aS'Filter_1_Pan_Source'
p1389
aa(lp1390
(I0
I127
I1
tp1391
ag181
aS'Filter 1 Pan Amount'
p1392
aS'Pan Amount'
p1393
aS'Filter 1'
p1394
aS'Filter_1_Pan_Amount'
p1395
aag2
a(lp1396
(I0
I11
I1
tp1397
ag1151
aS'Filter 2 Type'
p1398
aS'Type'
p1399
aS'Filter 2'
p1400
aS'Filter_2_Type'
p1401
aa(lp1402
(I0
I127
I1
tp1403
ag526
aS'Filter 2 Cutoff'
p1404
aS'Cutoff'
p1405
aS'Filter 2'
p1406
aS'Filter_2_Cutoff'
p1407
aag2
a(lp1408
(I0
I127
I1
tp1409
ag526
aS'Filter 2 Resonance'
p1410
aS'Resonance'
p1411
aS'Filter 2'
p1412
aS'Filter_2_Resonance'
p1413
aa(lp1414
(I0
I127
I1
tp1415
ag526
aS'Filter 2 Drive'
p1416
aS'Drive'
p1417
aS'Filter 2'
p1418
aS'Filter_2_Drive'
p1419
aa(lp1420
(I0
I12
I1
tp1421
ag1188
aS'Filter 2 Drive Curve'
p1422
aS'Drive Curve'
p1423
aS'Filter 2'
p1424
aS'Filter_2_Drive_Curve'
p1425
aag2
ag2
ag2
a(lp1426
(I0
I127
I1
tp1427
ag372
aS'Filter 2 Keytrack'
p1428
aS'Keytrack'
p1429
aS'Filter 2'
p1430
aS'Filter_2_Keytrack'
p1431
aa(lp1432
(I0
I127
I1
tp1433
ag181
aS'Filter 2 Env Amount'
p1434
aS'Env Amount'
p1435
aS'Filter 2'
p1436
aS'Filter_2_Env_Amount'
p1437
aa(lp1438
(I0
I127
I1
tp1439
ag181
aS'Filter 2 Env Velocity'
p1440
aS'Env Velocity'
p1441
aS'Filter 2'
p1442
aS'Filter_2_Env_Velocity'
p1443
aa(lp1444
(I0
I30
I1
tp1445
ag658
aS'Filter 2 Mod Source'
p1446
aS'Mod Source'
p1447
aS'Filter 2'
p1448
aS'Filter_2_Mod_Source'
p1449
aa(lp1450
(I0
I127
I1
tp1451
ag181
aS'Filter 2 Mod Amount'
p1452
aS'Mod Amount'
p1453
aS'Filter 2'
p1454
aS'Filter_2_Mod_Amount'
p1455
aa(lp1456
(I0
I11
I1
tp1457
ag379
aS'Filter 2 FM Source'
p1458
aS'FM Source'
p1459
aS'Filter 2'
p1460
aS'Filter_2_FM_Source'
p1461
aa(lp1462
(I0
I127
I1
tp1463
ag1244
aS'Filter 2 FM Amount'
p1464
aS'FM Amount'
p1465
aS'Filter 2'
p1466
aS'Filter_2_FM_Amount'
p1467
aa(lp1468
(I0
I127
I1
tp1469
ag1379
aS'Filter 2 Pan'
p1470
aS'Pan'
p1471
aS'Filter 2'
p1472
aS'Filter_2_Pan'
p1473
aa(lp1474
(I0
I30
I1
tp1475
ag658
aS'Filter 2 Pan Source'
p1476
aS'Pan Source'
p1477
aS'Filter 2'
p1478
aS'Filter_2_Pan_Source'
p1479
aa(lp1480
(I0
I127
I1
tp1481
ag181
aS'Filter 2 Pan Amount'
p1482
aS'Pan Amount'
p1483
aS'Filter 2'
p1484
aS'Filter_2_Pan_Amount'
p1485
aag2
a(lp1486
(I0
I1
I1
tp1487
a(S'parallel'
p1488
S'serial'
p1489
tp1490
aS'Filter Routing'
p1491
aS'Routing'
p1492
aS'Filter'
p1493
aS'Filter_Routing'
p1494
aag2
ag2
ag2
a(lp1495
(I0
I127
I1
tp1496
ag526
aS'Amplifier Volume'
p1497
aS'Volume'
p1498
aS'Amplifier'
p1499
aS'Amplifier_Volume'
p1500
aa(lp1501
(I0
I127
I1
tp1502
ag181
aS'Amplifier Velocity'
p1503
aS'Velocity'
p1504
aS'Amplifier'
p1505
aS'Amplifier_Velocity'
p1506
aa(lp1507
(I0
I30
I1
tp1508
ag658
aS'Amplifier Mod Source'
p1509
aS'Source'
p1510
aS'Amplifier Mod'
p1511
aS'Amplifier_Mod_Source'
p1512
aa(lp1513
(I0
I127
I1
tp1514
ag181
aS'Amplifier Mod Amount'
p1515
aS'Amount'
p1516
aS'Amplifier Mod'
p1517
aS'Amplifier_Mod_Amount'
p1518
aag2
ag2
ag2
a(lp1519
(I0
I5
I1
tp1520
a(lp1521
S'Bypass'
p1522
aS'Chorus'
p1523
aS'Flanger'
p1524
aS'Phaser'
p1525
aS'Overdrive'
p1526
aS'Triple FX'
p1527
aaS'Effect 1 Type'
p1528
aS'Type'
p1529
aS'Effect 1'
p1530
aS'Effect_1_Type'
p1531
aa(lp1532
(I0
I127
I1
tp1533
ag526
aS'Effect 1 Mix'
p1534
aS'Mix'
p1535
aS'Effect 1'
p1536
aS'Effect_1_Mix'
p1537
aa(lp1538
(I0
I127
I1
tp1539
ag526
aS'Effect 1 Parameter 1'
p1540
aS'Parameter 1'
p1541
aS'Effect 1'
p1542
aS'Effect_1_Parameter_1'
p1543
aa(lp1544
(I0
I127
I1
tp1545
ag526
aS'Effect 1 Parameter 2'
p1546
aS'Parameter 2'
p1547
aS'Effect 1'
p1548
aS'Effect_1_Parameter_2'
p1549
aa(lp1550
(I0
I127
I1
tp1551
ag526
aS'Effect 1 Parameter 3'
p1552
aS'Parameter 3'
p1553
aS'Effect 1'
p1554
aS'Effect_1_Parameter_3'
p1555
aa(lp1556
(I0
I127
I1
tp1557
ag526
aS'Effect 1 Parameter 4'
p1558
aS'Parameter 4'
p1559
aS'Effect 1'
p1560
aS'Effect_1_Parameter_4'
p1561
aa(lp1562
(I0
I127
I1
tp1563
ag526
aS'Effect 1 Parameter 5'
p1564
aS'Parameter 5'
p1565
aS'Effect 1'
p1566
aS'Effect_1_Parameter_5'
p1567
aa(lp1568
(I0
I127
I1
tp1569
ag526
aS'Effect 1 Parameter 6'
p1570
aS'Parameter 6'
p1571
aS'Effect 1'
p1572
aS'Effect_1_Parameter_6'
p1573
aa(lp1574
(I0
I127
I1
tp1575
ag526
aS'Effect 1 Parameter 7'
p1576
aS'Parameter 7'
p1577
aS'Effect 1'
p1578
aS'Effect_1_Parameter_7'
p1579
aa(lp1580
(I0
I127
I1
tp1581
ag526
aS'Effect 1 Parameter 8'
p1582
aS'Parameter 8'
p1583
aS'Effect 1'
p1584
aS'Effect_1_Parameter_8'
p1585
aa(lp1586
(I0
I127
I1
tp1587
ag526
aS'Effect 1 Parameter 9'
p1588
aS'Parameter 9'
p1589
aS'Effect 1'
p1590
aS'Effect_1_Parameter_9'
p1591
aa(lp1592
(I0
I127
I1
tp1593
ag526
aS'Effect 1 Parameter 10'
p1594
aS'Parameter 10'
p1595
aS'Effect 1'
p1596
aS'Effect_1_Parameter_10'
p1597
aa(lp1598
(I0
I127
I1
tp1599
ag526
aS'Effect 1 Parameter 11'
p1600
aS'Parameter 11'
p1601
aS'Effect 1'
p1602
aS'Effect_1_Parameter_11'
p1603
aa(lp1604
(I0
I127
I1
tp1605
ag526
aS'Effect 1 Parameter 12'
p1606
aS'Parameter 12'
p1607
aS'Effect 1'
p1608
aS'Effect_1_Parameter_12'
p1609
aa(lp1610
(I0
I127
I1
tp1611
ag526
aS'Effect 1 Parameter 13'
p1612
aS'Parameter 13'
p1613
aS'Effect 1'
p1614
aS'Effect_1_Parameter_13'
p1615
aa(lp1616
(I0
I127
I1
tp1617
ag526
aS'Effect 1 Parameter 14'
p1618
aS'Parameter 14'
p1619
aS'Effect 1'
p1620
aS'Effect_1_Parameter_14'
p1621
aa(lp1622
(I0
I8
I1
tp1623
a(lp1624
g1522
ag1523
ag1524
ag1525
ag1526
ag1527
aS'Delay'
p1625
aS'Clk.Delay'
p1626
aS'Reverb'
p1627
aaS'Effect 2 Type'
p1628
aS'Type'
p1629
aS'Effect 2'
p1630
aS'Effect_2_Type'
p1631
aa(lp1632
(I0
I127
I1
tp1633
ag526
aS'Effect 2 Mix'
p1634
aS'Mix'
p1635
aS'Effect 2'
p1636
aS'Effect_2_Mix'
p1637
aa(lp1638
(I0
I127
I1
tp1639
ag526
aS'Effect 2 Parameter 1'
p1640
aS'Parameter 1'
p1641
aS'Effect 2'
p1642
aS'Effect_2_Parameter_1'
p1643
aa(lp1644
(I0
I127
I1
tp1645
ag526
aS'Effect 2 Parameter 2'
p1646
aS'Parameter 2'
p1647
aS'Effect 2'
p1648
aS'Effect_2_Parameter_2'
p1649
aa(lp1650
(I0
I127
I1
tp1651
ag526
aS'Effect 2 Parameter 3'
p1652
aS'Parameter 3'
p1653
aS'Effect 2'
p1654
aS'Effect_2_Parameter_3'
p1655
aa(lp1656
(I0
I127
I1
tp1657
ag526
aS'Effect 2 Parameter 4'
p1658
aS'Parameter 4'
p1659
aS'Effect 2'
p1660
aS'Effect_2_Parameter_4'
p1661
aa(lp1662
(I0
I127
I1
tp1663
ag526
aS'Effect 2 Parameter 5'
p1664
aS'Parameter 5'
p1665
aS'Effect 2'
p1666
aS'Effect_2_Parameter_5'
p1667
aa(lp1668
(I0
I127
I1
tp1669
ag526
aS'Effect 2 Parameter 6'
p1670
aS'Parameter 6'
p1671
aS'Effect 2'
p1672
aS'Effect_2_Parameter_6'
p1673
aa(lp1674
(I0
I127
I1
tp1675
ag526
aS'Effect 2 Parameter 7'
p1676
aS'Parameter 7'
p1677
aS'Effect 2'
p1678
aS'Effect_2_Parameter_7'
p1679
aa(lp1680
(I0
I127
I1
tp1681
ag526
aS'Effect 2 Parameter 8'
p1682
aS'Parameter 8'
p1683
aS'Effect 2'
p1684
aS'Effect_2_Parameter_8'
p1685
aa(lp1686
(I0
I127
I1
tp1687
ag526
aS'Effect 2 Parameter 9'
p1688
aS'Parameter 9'
p1689
aS'Effect 2'
p1690
aS'Effect_2_Parameter_9'
p1691
aa(lp1692
(I0
I127
I1
tp1693
ag526
aS'Effect 2 Parameter 10'
p1694
aS'Parameter 10'
p1695
aS'Effect 2'
p1696
aS'Effect_2_Parameter_10'
p1697
aa(lp1698
(I0
I127
I1
tp1699
ag526
aS'Effect 2 Parameter 11'
p1700
aS'Parameter 11'
p1701
aS'Effect 2'
p1702
aS'Effect_2_Parameter_11'
p1703
aa(lp1704
(I0
I127
I1
tp1705
ag526
aS'Effect 2 Parameter 12'
p1706
aS'Parameter 12'
p1707
aS'Effect 2'
p1708
aS'Effect_2_Parameter_12'
p1709
aa(lp1710
(I0
I127
I1
tp1711
ag526
aS'Effect 2 Parameter 13'
p1712
aS'Parameter 13'
p1713
aS'Effect 2'
p1714
aS'Effect_2_Parameter_13'
p1715
aa(lp1716
(I0
I127
I1
tp1717
ag526
aS'Effect 2 Parameter 14'
p1718
aS'Parameter 14'
p1719
aS'Effect 2'
p1720
aS'Effect_2_Parameter_14'
p1721
aa(lp1722
(I0
I5
I1
tp1723
a(lp1724
S'Sine'
p1725
aS'Triangle'
p1726
aS'Square'
p1727
aS'Saw'
p1728
aS'Random'
p1729
aS'S&H'
p1730
aaS'LFO 1 Shape'
p1731
aS'Shape'
p1732
aS'LFO 1'
p1733
aS'LFO_1_Shape'
p1734
aa(lp1735
(I0
I127
I1
tp1736
a(lp1737
S'1280 bars'
p1738
aS'1280 bars'
p1739
aS'1152 bars'
p1740
aS'1152 bars'
p1741
aS'1024 bars'
p1742
aS'1024 bars'
p1743
aS'896 bars'
p1744
aS'896 bars'
p1745
aS'768 bars'
p1746
aS'768 bars'
p1747
aS'640 bars'
p1748
aS'640 bars'
p1749
aS'576 bars'
p1750
aS'576 bars'
p1751
aS'512 bars'
p1752
aS'512 bars'
p1753
aS'448 bars'
p1754
aS'448 bars'
p1755
aS'384 bars'
p1756
aS'384 bars'
p1757
aS'320 bars'
p1758
aS'320 bars'
p1759
aS'288 bars'
p1760
aS'288 bars'
p1761
aS'256 bars'
p1762
aS'256 bars'
p1763
aS'224 bars'
p1764
aS'224 bars'
p1765
aS'192 bars'
p1766
aS'192 bars'
p1767
aS'160 bars'
p1768
aS'160 bars'
p1769
aS'144 bars'
p1770
aS'144 bars'
p1771
aS'128 bars'
p1772
aS'128 bars'
p1773
aS'112 bars'
p1774
aS'112 bars'
p1775
aS'96 bars'
p1776
aS'96 bars'
p1777
aS'80 bars'
p1778
aS'80 bars'
p1779
aS'72 bars'
p1780
aS'72 bars'
p1781
aS'64 bars'
p1782
aS'64 bars'
p1783
aS'56 bars'
p1784
aS'56 bars'
p1785
aS'48 bars'
p1786
aS'48 bars'
p1787
aS'40 bars'
p1788
aS'40 bars'
p1789
aS'36 bars'
p1790
aS'36 bars'
p1791
aS'32 bars'
p1792
aS'32 bars'
p1793
aS'28 bars'
p1794
aS'28 bars'
p1795
aS'24 bars'
p1796
aS'24 bars'
p1797
aS'20 bars'
p1798
aS'20 bars'
p1799
aS'18 bars'
p1800
aS'18 bars'
p1801
aS'16 bars'
p1802
aS'16 bars'
p1803
aS'14 bars'
p1804
aS'14 bars'
p1805
aS'12 bars'
p1806
aS'12 bars'
p1807
aS'10 bars'
p1808
aS'10 bars'
p1809
aS'9 bars'
p1810
aS'9 bars'
p1811
aS'8 bars'
p1812
aS'8 bars'
p1813
aS'7 bars'
p1814
aS'7 bars'
p1815
aS'6 bars'
p1816
aS'6 bars'
p1817
aS'5 bars'
p1818
aS'5 bars'
p1819
aS'4 bars'
p1820
aS'4 bars'
p1821
aS'3.5 bars'
p1822
aS'3.5 bars'
p1823
aS'3 bars'
p1824
aS'3 bars'
p1825
aS'2.5 bars'
p1826
aS'2.5 bars'
p1827
aS'2 bars'
p1828
aS'2 bars'
p1829
aS'1.5 bars'
p1830
aS'1.5 bars'
p1831
aS'1 bar'
p1832
aS'1 bar'
p1833
aS'1/2.'
p1834
aS'1/2.'
p1835
aS'1/1T'
p1836
aS'1/1T'
p1837
aS'1/2 '
p1838
aS'1/2 '
p1839
aS'1/4.'
p1840
aS'1/4.'
p1841
aS'1/2T'
p1842
aS'1/2T'
p1843
aS'1/4 '
p1844
aS'1/4 '
p1845
aS'1/8.'
p1846
aS'1/8.'
p1847
aS'1/4T'
p1848
aS'1/4T'
p1849
aS'1/8 '
p1850
aS'1/8 '
p1851
aS'1/16.'
p1852
aS'1/16.'
p1853
aS'1/8T'
p1854
aS'1/8T'
p1855
aS'1/16 '
p1856
aS'1/16 '
p1857
aS'1/32.'
p1858
aS'1/32.'
p1859
aS'1/16T'
p1860
aS'1/16T'
p1861
aS'1/32 '
p1862
aS'1/32 '
p1863
aS'1/48'
p1864
aS'1/48'
p1865
aaS'LFO 1 Speed'
p1866
aS'Speed'
p1867
aS'LFO 1'
p1868
aS'LFO_1_Speed'
p1869
aag2
a(lp1870
(I0
I1
I1
tp1871
ag908
aS'LFO 1 Sync'
p1872
aS'Sync'
p1873
aS'LFO 1'
p1874
aS'LFO_1_Sync'
p1875
aa(lp1876
(I0
I1
I1
tp1877
ag908
aS'LFO 1 Clocked'
p1878
aS'Clocked'
p1879
aS'LFO 1'
p1880
aS'LFO_1_Clocked'
p1881
aa(lp1882
(I0
I127
I1
tp1883
a(S'free'
p1884
S'0\xc2\xb0'
p1885
S'3\xc2\xb0'
p1886
S'6\xc2\xb0'
p1887
S'8\xc2\xb0'
p1888
S'11\xc2\xb0'
p1889
S'14\xc2\xb0'
p1890
S'17\xc2\xb0'
p1891
S'20\xc2\xb0'
p1892
S'22\xc2\xb0'
p1893
S'25\xc2\xb0'
p1894
S'28\xc2\xb0'
p1895
S'31\xc2\xb0'
p1896
S'34\xc2\xb0'
p1897
S'36\xc2\xb0'
p1898
S'39\xc2\xb0'
p1899
S'42\xc2\xb0'
p1900
S'45\xc2\xb0'
p1901
S'48\xc2\xb0'
p1902
S'50\xc2\xb0'
p1903
S'53\xc2\xb0'
p1904
S'56\xc2\xb0'
p1905
S'59\xc2\xb0'
p1906
S'62\xc2\xb0'
p1907
S'64\xc2\xb0'
p1908
S'67\xc2\xb0'
p1909
S'70\xc2\xb0'
p1910
S'73\xc2\xb0'
p1911
S'76\xc2\xb0'
p1912
S'78\xc2\xb0'
p1913
S'81\xc2\xb0'
p1914
S'84\xc2\xb0'
p1915
S'87\xc2\xb0'
p1916
S'90\xc2\xb0'
p1917
S'92\xc2\xb0'
p1918
S'95\xc2\xb0'
p1919
S'98\xc2\xb0'
p1920
S'101\xc2\xb0'
p1921
S'104\xc2\xb0'
p1922
S'106\xc2\xb0'
p1923
S'109\xc2\xb0'
p1924
S'112\xc2\xb0'
p1925
S'115\xc2\xb0'
p1926
S'118\xc2\xb0'
p1927
S'120\xc2\xb0'
p1928
S'123\xc2\xb0'
p1929
S'126\xc2\xb0'
p1930
S'129\xc2\xb0'
p1931
S'132\xc2\xb0'
p1932
S'134\xc2\xb0'
p1933
S'137\xc2\xb0'
p1934
S'140\xc2\xb0'
p1935
S'143\xc2\xb0'
p1936
S'146\xc2\xb0'
p1937
S'148\xc2\xb0'
p1938
S'151\xc2\xb0'
p1939
S'154\xc2\xb0'
p1940
S'157\xc2\xb0'
p1941
S'160\xc2\xb0'
p1942
S'162\xc2\xb0'
p1943
S'165\xc2\xb0'
p1944
S'168\xc2\xb0'
p1945
S'171\xc2\xb0'
p1946
S'174\xc2\xb0'
p1947
S'176\xc2\xb0'
p1948
S'179\xc2\xb0'
p1949
S'182\xc2\xb0'
p1950
S'185\xc2\xb0'
p1951
S'188\xc2\xb0'
p1952
S'190\xc2\xb0'
p1953
S'193\xc2\xb0'
p1954
S'196\xc2\xb0'
p1955
S'199\xc2\xb0'
p1956
S'202\xc2\xb0'
p1957
S'204\xc2\xb0'
p1958
S'207\xc2\xb0'
p1959
S'210\xc2\xb0'
p1960
S'213\xc2\xb0'
p1961
S'216\xc2\xb0'
p1962
S'218\xc2\xb0'
p1963
S'221\xc2\xb0'
p1964
S'224\xc2\xb0'
p1965
S'227\xc2\xb0'
p1966
S'230\xc2\xb0'
p1967
S'232\xc2\xb0'
p1968
S'235\xc2\xb0'
p1969
S'238\xc2\xb0'
p1970
S'241\xc2\xb0'
p1971
S'244\xc2\xb0'
p1972
S'246\xc2\xb0'
p1973
S'249\xc2\xb0'
p1974
S'252\xc2\xb0'
p1975
S'255\xc2\xb0'
p1976
S'258\xc2\xb0'
p1977
S'260\xc2\xb0'
p1978
S'263\xc2\xb0'
p1979
S'266\xc2\xb0'
p1980
S'269\xc2\xb0'
p1981
S'272\xc2\xb0'
p1982
S'274\xc2\xb0'
p1983
S'277\xc2\xb0'
p1984
S'280\xc2\xb0'
p1985
S'283\xc2\xb0'
p1986
S'286\xc2\xb0'
p1987
S'288\xc2\xb0'
p1988
S'291\xc2\xb0'
p1989
S'294\xc2\xb0'
p1990
S'297\xc2\xb0'
p1991
S'300\xc2\xb0'
p1992
S'302\xc2\xb0'
p1993
S'305\xc2\xb0'
p1994
S'308\xc2\xb0'
p1995
S'311\xc2\xb0'
p1996
S'314\xc2\xb0'
p1997
S'316\xc2\xb0'
p1998
S'319\xc2\xb0'
p1999
S'322\xc2\xb0'
p2000
S'325\xc2\xb0'
p2001
S'328\xc2\xb0'
p2002
S'330\xc2\xb0'
p2003
S'333\xc2\xb0'
p2004
S'336\xc2\xb0'
p2005
S'339\xc2\xb0'
p2006
S'342\xc2\xb0'
p2007
S'344\xc2\xb0'
p2008
S'347\xc2\xb0'
p2009
S'350\xc2\xb0'
p2010
S'353\xc2\xb0'
p2011
tp2012
aS'LFO 1 Start Phase'
p2013
aS'Start Phase'
p2014
aS'LFO 1'
p2015
aS'LFO_1_Start_Phase'
p2016
aa(lp2017
(I0
I127
I1
tp2018
ag526
aS'LFO 1 Delay'
p2019
aS'Delay'
p2020
aS'LFO 1'
p2021
aS'LFO_1_Delay'
p2022
aa(lp2023
(I0
I127
I1
tp2024
ag181
aS'LFO 1 Fade'
p2025
aS'Fade'
p2026
aS'LFO 1'
p2027
aS'LFO_1_Fade'
p2028
aag2
ag2
a(lp2029
(I0
I127
I1
tp2030
ag372
aS'LFO 1 Keytrack'
p2031
aS'Keytrack'
p2032
aS'LFO 1'
p2033
aS'LFO_1_Keytrack'
p2034
aag2
a(lp2035
(I0
I5
I1
tp2036
ag1724
aS'LFO 2 Shape'
p2037
aS'Shape'
p2038
aS'LFO 2'
p2039
aS'LFO_2_Shape'
p2040
aa(lp2041
(I0
I127
I1
tp2042
ag1737
aS'LFO 2 Speed'
p2043
aS'Speed'
p2044
aS'LFO 2'
p2045
aS'LFO_2_Speed'
p2046
aag2
a(lp2047
(I0
I1
I1
tp2048
ag908
aS'LFO 2 Sync'
p2049
aS'Sync'
p2050
aS'LFO 2'
p2051
aS'LFO_2_Sync'
p2052
aa(lp2053
(I0
I1
I1
tp2054
ag908
aS'LFO 2 Clocked'
p2055
aS'Clocked'
p2056
aS'LFO 2'
p2057
aS'LFO_2_Clocked'
p2058
aa(lp2059
(I0
I127
I1
tp2060
ag2012
aS'LFO 2 Start Phase'
p2061
aS'Start Phase'
p2062
aS'LFO 2'
p2063
aS'LFO_2_Start_Phase'
p2064
aa(lp2065
(I0
I127
I1
tp2066
ag526
aS'LFO 2 Delay'
p2067
aS'Delay'
p2068
aS'LFO 2'
p2069
aS'LFO_2_Delay'
p2070
aa(lp2071
(I0
I127
I1
tp2072
ag181
aS'LFO 2 Fade'
p2073
aS'Fade'
p2074
aS'LFO 2'
p2075
aS'LFO_2_Fade'
p2076
aag2
ag2
a(lp2077
(I0
I127
I1
tp2078
ag372
aS'LFO 2 Keytrack'
p2079
aS'Keytrack'
p2080
aS'LFO 2'
p2081
aS'LFO_2_Keytrack'
p2082
aag2
a(lp2083
(I0
I5
I1
tp2084
ag1724
aS'LFO 3 Shape'
p2085
aS'Shape'
p2086
aS'LFO 3'
p2087
aS'LFO_3_Shape'
p2088
aa(lp2089
(I0
I127
I1
tp2090
ag1737
aS'LFO 3 Speed'
p2091
aS'Speed'
p2092
aS'LFO 3'
p2093
aS'LFO_3_Speed'
p2094
aag2
a(lp2095
(I0
I1
I1
tp2096
ag908
aS'LFO 3 Sync'
p2097
aS'Sync'
p2098
aS'LFO 3'
p2099
aS'LFO_3_Sync'
p2100
aa(lp2101
(I0
I1
I1
tp2102
ag908
aS'LFO 3 Clocked'
p2103
aS'Clocked'
p2104
aS'LFO 3'
p2105
aS'LFO_3_Clocked'
p2106
aa(lp2107
(I0
I127
I1
tp2108
ag2012
aS'LFO 3 Start Phase'
p2109
aS'Start Phase'
p2110
aS'LFO 3'
p2111
aS'LFO_3_Start_Phase'
p2112
aa(lp2113
(I0
I127
I1
tp2114
ag526
aS'LFO 3 Delay'
p2115
aS'Delay'
p2116
aS'LFO 3'
p2117
aS'LFO_3_Delay'
p2118
aa(lp2119
(I0
I127
I1
tp2120
ag181
aS'LFO 3 Fade'
p2121
aS'Fade'
p2122
aS'LFO 3'
p2123
aS'LFO_3_Fade'
p2124
aag2
ag2
a(lp2125
(I0
I127
I1
tp2126
ag372
aS'LFO 3 Keytrack'
p2127
aS'Keytrack'
p2128
aS'LFO 3'
p2129
aS'LFO_3_Keytrack'
p2130
aag2
a(lp2131
(I0
I4
I1
tp2132
ag372
aS'Filter Envelope Mode'
p2133
aS'Mode'
p2134
aS'Filter Envelope'
p2135
aS'Filter_Envelope_Mode'
p2136
aag2
ag2
a(lp2137
(I0
I127
I1
tp2138
ag526
aS'Filter Envelope Attack'
p2139
aS'Attack'
p2140
aS'Filter Envelope'
p2141
aS'Filter_Envelope_Attack'
p2142
aa(lp2143
(I0
I127
I1
tp2144
ag526
aS'Filter Envelope Attack Level'
p2145
aS'Attack Level'
p2146
aS'Filter Envelope'
p2147
aS'Filter_Envelope_Attack_Level'
p2148
aa(lp2149
(I0
I127
I1
tp2150
ag526
aS'Filter Envelope Decay'
p2151
aS'Decay'
p2152
aS'Filter Envelope'
p2153
aS'Filter_Envelope_Decay'
p2154
aa(lp2155
(I0
I127
I1
tp2156
ag526
aS'Filter Envelope Sustain'
p2157
aS'Sustain'
p2158
aS'Filter Envelope'
p2159
aS'Filter_Envelope_Sustain'
p2160
aa(lp2161
(I0
I127
I1
tp2162
ag526
aS'Filter Envelope Decay 2'
p2163
aS'Decay 2'
p2164
aS'Filter Envelope'
p2165
aS'Filter_Envelope_Decay_2'
p2166
aa(lp2167
(I0
I127
I1
tp2168
ag526
aS'Filter Envelope Sustain 2'
p2169
aS'Sustain 2'
p2170
aS'Filter Envelope'
p2171
aS'Filter_Envelope_Sustain_2'
p2172
aa(lp2173
(I0
I127
I1
tp2174
ag526
aS'Filter Envelope Release'
p2175
aS'Release'
p2176
aS'Filter Envelope'
p2177
aS'Filter_Envelope_Release'
p2178
aag2
ag2
a(lp2179
(I0
I4
I1
tp2180
ag526
aS'Amplifier Envelope Mode'
p2181
aS'Mode'
p2182
aS'Amplifier Envelope'
p2183
aS'Amplifier_Envelope_Mode'
p2184
aag2
ag2
a(lp2185
(I0
I127
I1
tp2186
ag526
aS'Amplifier Envelope Attack'
p2187
aS'Attack'
p2188
aS'Amplifier Envelope'
p2189
aS'Amplifier_Envelope_Attack'
p2190
aa(lp2191
(I0
I127
I1
tp2192
ag526
aS'Amplifier Envelope Attack Level'
p2193
aS'Attack Level'
p2194
aS'Amplifier Envelope'
p2195
aS'Amplifier_Envelope_Attack_Level'
p2196
aa(lp2197
(I0
I127
I1
tp2198
ag526
aS'Amplifier Envelope Decay'
p2199
aS'Decay'
p2200
aS'Amplifier Envelope'
p2201
aS'Amplifier_Envelope_Decay'
p2202
aa(lp2203
(I0
I127
I1
tp2204
ag526
aS'Amplifier Envelope Sustain'
p2205
aS'Sustain'
p2206
aS'Amplifier Envelope'
p2207
aS'Amplifier_Envelope_Sustain'
p2208
aa(lp2209
(I0
I127
I1
tp2210
ag526
aS'Amplifier Envelope Decay 2'
p2211
aS'Decay 2'
p2212
aS'Amplifier Envelope'
p2213
aS'Amplifier_Envelope_Decay_2'
p2214
aa(lp2215
(I0
I127
I1
tp2216
ag526
aS'Amplifier Envelope Sustain 2'
p2217
aS'Sustain 2'
p2218
aS'Amplifier Envelope'
p2219
aS'Amplifier_Envelope_Sustain_2'
p2220
aa(lp2221
(I0
I127
I1
tp2222
ag526
aS'Amplifier Envelope Release'
p2223
aS'Release'
p2224
aS'Amplifier Envelope'
p2225
aS'Amplifier_Envelope_Release'
p2226
aag2
ag2
a(lp2227
(I0
I4
I1
tp2228
ag526
aS'Envelope 3 Mode'
p2229
aS'Mode'
p2230
aS'Envelope 3'
p2231
aS'Envelope_3_Mode'
p2232
aag2
ag2
a(lp2233
(I0
I127
I1
tp2234
ag526
aS'Envelope 3 Attack'
p2235
aS'Attack'
p2236
aS'Envelope 3'
p2237
aS'Envelope_3_Attack'
p2238
aa(lp2239
(I0
I127
I1
tp2240
ag526
aS'Envelope 3 Attack Level'
p2241
aS'Attack Level'
p2242
aS'Envelope 3'
p2243
aS'Envelope_3_Attack_Level'
p2244
aa(lp2245
(I0
I127
I1
tp2246
ag526
aS'Envelope 3 Decay'
p2247
aS'Decay'
p2248
aS'Envelope 3'
p2249
aS'Envelope_3_Decay'
p2250
aa(lp2251
(I0
I127
I1
tp2252
ag526
aS'Envelope 3 Sustain'
p2253
aS'Sustain'
p2254
aS'Envelope 3'
p2255
aS'Envelope_3_Sustain'
p2256
aa(lp2257
(I0
I127
I1
tp2258
ag526
aS'Envelope 3 Decay 2'
p2259
aS'Decay 2'
p2260
aS'Envelope 3'
p2261
aS'Envelope_3_Decay_2'
p2262
aa(lp2263
(I0
I127
I1
tp2264
ag526
aS'Envelope 3 Sustain 2'
p2265
aS'Sustain 2'
p2266
aS'Envelope 3'
p2267
aS'Envelope_3_Sustain_2'
p2268
aa(lp2269
(I0
I127
I1
tp2270
ag526
aS'Envelope 3 Release'
p2271
aS'Release'
p2272
aS'Envelope 3'
p2273
aS'Envelope_3_Release'
p2274
aag2
ag2
a(lp2275
(I0
I4
I1
tp2276
ag526
aS'Envelope 4 Mode'
p2277
aS'Mode'
p2278
aS'Envelope 4'
p2279
aS'Envelope_4_Mode'
p2280
aag2
ag2
a(lp2281
(I0
I127
I1
tp2282
ag526
aS'Envelope 4 Attack'
p2283
aS'Attack'
p2284
aS'Envelope 4'
p2285
aS'Envelope_4_Attack'
p2286
aa(lp2287
(I0
I127
I1
tp2288
ag526
aS'Envelope 4 Attack Level'
p2289
aS'Attack Level'
p2290
aS'Envelope 4'
p2291
aS'Envelope_4_Attack_Level'
p2292
aa(lp2293
(I0
I127
I1
tp2294
ag526
aS'Envelope 4 Decay'
p2295
aS'Decay'
p2296
aS'Envelope 4'
p2297
aS'Envelope_4_Decay'
p2298
aa(lp2299
(I0
I127
I1
tp2300
ag526
aS'Envelope 4 Sustain'
p2301
aS'Sustain'
p2302
aS'Envelope 4'
p2303
aS'Envelope_4_Sustain'
p2304
aa(lp2305
(I0
I127
I1
tp2306
ag526
aS'Envelope 4 Decay 2'
p2307
aS'Decay 2'
p2308
aS'Envelope 4'
p2309
aS'Envelope_4_Decay_2'
p2310
aa(lp2311
(I0
I127
I1
tp2312
ag526
aS'Envelope 4 Sustain 2'
p2313
aS'Sustain 2'
p2314
aS'Envelope 4'
p2315
aS'Envelope_4_Sustain_2'
p2316
aa(lp2317
(I0
I127
I1
tp2318
ag526
aS'Envelope 4 Release'
p2319
aS'Release'
p2320
aS'Envelope 4'
p2321
aS'Envelope_4_Release'
p2322
aag2
ag2
ag2
a(lp2323
(I0
I30
I1
tp2324
ag658
aS'Modifier 1 Source A'
p2325
aS'Source A'
p2326
aS'Modifier 1'
p2327
aS'Modifier_1_Source_A'
p2328
aa(lp2329
(I0
I30
I1
tp2330
ag658
aS'Modifier 1 Source B'
p2331
aS'Source B'
p2332
aS'Modifier 1'
p2333
aS'Modifier_1_Source_B'
p2334
aa(lp2335
(I0
I7
I1
tp2336
a(lp2337
S'+'
p2338
aS'-'
p2339
aS'*'
p2340
aS'AND'
p2341
aS'OR'
p2342
aS'XOR'
p2343
aS'MAX'
p2344
aS'min'
p2345
aaS'Modifier 1 Operation'
p2346
aS'Operation'
p2347
aS'Modifier 1'
p2348
aS'Modifier_1_Operation'
p2349
aa(lp2350
(I0
I127
I1
tp2351
ag181
aS'Modifier 1 Constant'
p2352
aS'Constant'
p2353
aS'Modifier 1'
p2354
aS'Modifier_1_Constant'
p2355
aa(lp2356
(I0
I30
I1
tp2357
ag658
aS'Modifier 2 Source A'
p2358
aS'Source A'
p2359
aS'Modifier 2'
p2360
aS'Modifier_2_Source_A'
p2361
aa(lp2362
(I0
I30
I1
tp2363
ag658
aS'Modifier 2 Source B'
p2364
aS'Source B'
p2365
aS'Modifier 2'
p2366
aS'Modifier_2_Source_B'
p2367
aa(lp2368
(I0
I7
I1
tp2369
ag2337
aS'Modifier 2 Operation'
p2370
aS'Operation'
p2371
aS'Modifier 2'
p2372
aS'Modifier_2_Operation'
p2373
aa(lp2374
(I0
I127
I1
tp2375
ag181
aS'Modifier 2 Constant'
p2376
aS'Constant'
p2377
aS'Modifier 2'
p2378
aS'Modifier_2_Constant'
p2379
aa(lp2380
(I0
I30
I1
tp2381
ag658
aS'Modifier 3 Source A'
p2382
aS'Source A'
p2383
aS'Modifier 3'
p2384
aS'Modifier_3_Source_A'
p2385
aa(lp2386
(I0
I30
I1
tp2387
ag658
aS'Modifier 3 Source B'
p2388
aS'Source B'
p2389
aS'Modifier 3'
p2390
aS'Modifier_3_Source_B'
p2391
aa(lp2392
(I0
I7
I1
tp2393
ag2337
aS'Modifier 3 Operation'
p2394
aS'Operation'
p2395
aS'Modifier 3'
p2396
aS'Modifier_3_Operation'
p2397
aa(lp2398
(I0
I127
I1
tp2399
ag181
aS'Modifier 3 Constant'
p2400
aS'Constant'
p2401
aS'Modifier 3'
p2402
aS'Modifier_3_Constant'
p2403
aa(lp2404
(I0
I30
I1
tp2405
ag658
aS'Modifier 4 Source A'
p2406
aS'Source A'
p2407
aS'Modifier 4'
p2408
aS'Modifier_4_Source_A'
p2409
aa(lp2410
(I0
I30
I1
tp2411
ag658
aS'Modifier 4 Source B'
p2412
aS'Source B'
p2413
aS'Modifier 4'
p2414
aS'Modifier_4_Source_B'
p2415
aa(lp2416
(I0
I7
I1
tp2417
ag2337
aS'Modifier 4 Operation'
p2418
aS'Operation'
p2419
aS'Modifier 4'
p2420
aS'Modifier_4_Operation'
p2421
aa(lp2422
(I0
I127
I1
tp2423
ag181
aS'Modifier 4 Constant'
p2424
aS'Constant'
p2425
aS'Modifier 4'
p2426
aS'Modifier_4_Constant'
p2427
aa(lp2428
(I0
I30
I1
tp2429
ag658
aS'Modulation 1 Source'
p2430
aS'Source'
p2431
aS'Modulation 1'
p2432
aS'Modulation_1_Source'
p2433
aa(lp2434
(I0
I53
I1
tp2435
a(lp2436
S'Pitch'
p2437
aS'O1 Pitch'
p2438
aS'O1 FM'
p2439
aS'O1 PW/Wave'
p2440
aS'O2 Pitch'
p2441
aS'O2 FM'
p2442
aS'O2 PW/Wave'
p2443
aS'O3 Pitch'
p2444
aS'O3 FM'
p2445
aS'O3 PW'
p2446
aS'O1 Level'
p2447
aS'O1 Balance'
p2448
aS'O2 Level'
p2449
aS'O2 Balance'
p2450
aS'O3 Level'
p2451
aS'O3 Balance'
p2452
aS'RMod Level'
p2453
aS'RMod Bal.'
p2454
aS'NoiseLevel'
p2455
aS'Noise Bal.'
p2456
aS'F1 Cutoff'
p2457
aS'F1 Reson.'
p2458
aS'F1 FM'
p2459
aS'F1 Drive'
p2460
aS'F1 Pan'
p2461
aS'F2 Cutoff'
p2462
aS'F2 Reson.'
p2463
aS'F2 FM'
p2464
aS'F2 Drive'
p2465
aS'F2 Pan'
p2466
aS'Volume'
p2467
aS'LFO1Speed'
p2468
aS'LFO2Speed'
p2469
aS'LFO3Speed'
p2470
aS'FE Attack'
p2471
aS'FE Decay'
p2472
aS'FE Sustain'
p2473
aS'FE Release'
p2474
aS'AE Attack'
p2475
aS'AE Decay'
p2476
aS'AE Sustain'
p2477
aS'AE Release'
p2478
aS'E3 Attack'
p2479
aS'E3 Decay'
p2480
aS'E3 Sustain'
p2481
aS'E3 Release'
p2482
aS'E4 Attack'
p2483
aS'E4 Decay'
p2484
aS'E4 Sustain'
p2485
aS'E4 Release'
p2486
aS'M1 Amount'
p2487
aS'M2 Amount'
p2488
aS'M3 Amount'
p2489
aS'M4 Amount'
p2490
aaS'Modulation 1 Destination'
p2491
aS'Destination'
p2492
aS'Modulation 1'
p2493
aS'Modulation_1_Destination'
p2494
aa(lp2495
(I0
I127
I1
tp2496
ag181
aS'Modulation 1 Amount'
p2497
aS'Amount'
p2498
aS'Modulation 1'
p2499
aS'Modulation_1_Amount'
p2500
aa(lp2501
(I0
I30
I1
tp2502
ag658
aS'Modulation 2 Source'
p2503
aS'Source'
p2504
aS'Modulation 2'
p2505
aS'Modulation_2_Source'
p2506
aa(lp2507
(I0
I53
I1
tp2508
ag2436
aS'Modulation 2 Destination'
p2509
aS'Destination'
p2510
aS'Modulation 2'
p2511
aS'Modulation_2_Destination'
p2512
aa(lp2513
(I0
I127
I1
tp2514
ag181
aS'Modulation 2 Amount'
p2515
aS'Amount'
p2516
aS'Modulation 2'
p2517
aS'Modulation_2_Amount'
p2518
aa(lp2519
(I0
I30
I1
tp2520
ag658
aS'Modulation 3 Source'
p2521
aS'Source'
p2522
aS'Modulation 3'
p2523
aS'Modulation_3_Source'
p2524
aa(lp2525
(I0
I53
I1
tp2526
ag2436
aS'Modulation 3 Destination'
p2527
aS'Destination'
p2528
aS'Modulation 3'
p2529
aS'Modulation_3_Destination'
p2530
aa(lp2531
(I0
I127
I1
tp2532
ag181
aS'Modulation 3 Amount'
p2533
aS'Amount'
p2534
aS'Modulation 3'
p2535
aS'Modulation_3_Amount'
p2536
aa(lp2537
(I0
I30
I1
tp2538
ag658
aS'Modulation 4 Source'
p2539
aS'Source'
p2540
aS'Modulation 4'
p2541
aS'Modulation_4_Source'
p2542
aa(lp2543
(I0
I53
I1
tp2544
ag2436
aS'Modulation 4 Destination'
p2545
aS'Destination'
p2546
aS'Modulation 4'
p2547
aS'Modulation_4_Destination'
p2548
aa(lp2549
(I0
I127
I1
tp2550
ag181
aS'Modulation 4 Amount'
p2551
aS'Amount'
p2552
aS'Modulation 4'
p2553
aS'Modulation_4_Amount'
p2554
aa(lp2555
(I0
I30
I1
tp2556
ag658
aS'Modulation 5 Source'
p2557
aS'Source'
p2558
aS'Modulation 5'
p2559
aS'Modulation_5_Source'
p2560
aa(lp2561
(I0
I53
I1
tp2562
ag2436
aS'Modulation 5 Destination'
p2563
aS'Destination'
p2564
aS'Modulation 5'
p2565
aS'Modulation_5_Destination'
p2566
aa(lp2567
(I0
I127
I1
tp2568
ag181
aS'Modulation 5 Amount'
p2569
aS'Amount'
p2570
aS'Modulation 5'
p2571
aS'Modulation_5_Amount'
p2572
aa(lp2573
(I0
I30
I1
tp2574
ag658
aS'Modulation 6 Source'
p2575
aS'Source'
p2576
aS'Modulation 6'
p2577
aS'Modulation_6_Source'
p2578
aa(lp2579
(I0
I53
I1
tp2580
ag2436
aS'Modulation 6 Destination'
p2581
aS'Destination'
p2582
aS'Modulation 6'
p2583
aS'Modulation_6_Destination'
p2584
aa(lp2585
(I0
I127
I1
tp2586
ag181
aS'Modulation 6 Amount'
p2587
aS'Amount'
p2588
aS'Modulation 6'
p2589
aS'Modulation_6_Amount'
p2590
aa(lp2591
(I0
I30
I1
tp2592
ag658
aS'Modulation 7 Source'
p2593
aS'Source'
p2594
aS'Modulation 7'
p2595
aS'Modulation_7_Source'
p2596
aa(lp2597
(I0
I53
I1
tp2598
ag2436
aS'Modulation 7 Destination'
p2599
aS'Destination'
p2600
aS'Modulation 7'
p2601
aS'Modulation_7_Destination'
p2602
aa(lp2603
(I0
I127
I1
tp2604
ag181
aS'Modulation 7 Amount'
p2605
aS'Amount'
p2606
aS'Modulation 7'
p2607
aS'Modulation_7_Amount'
p2608
aa(lp2609
(I0
I30
I1
tp2610
ag658
aS'Modulation 8 Source'
p2611
aS'Source'
p2612
aS'Modulation 8'
p2613
aS'Modulation_8_Source'
p2614
aa(lp2615
(I0
I53
I1
tp2616
ag2436
aS'Modulation 8 Destination'
p2617
aS'Destination'
p2618
aS'Modulation 8'
p2619
aS'Modulation_8_Destination'
p2620
aa(lp2621
(I0
I127
I1
tp2622
ag181
aS'Modulation 8 Amount'
p2623
aS'Amount'
p2624
aS'Modulation 8'
p2625
aS'Modulation_8_Amount'
p2626
aa(lp2627
(I0
I30
I1
tp2628
ag658
aS'Modulation 9 Source'
p2629
aS'Source'
p2630
aS'Modulation 9'
p2631
aS'Modulation_9_Source'
p2632
aa(lp2633
(I0
I53
I1
tp2634
ag2436
aS'Modulation 9 Destination'
p2635
aS'Destination'
p2636
aS'Modulation 9'
p2637
aS'Modulation_9_Destination'
p2638
aa(lp2639
(I0
I127
I1
tp2640
ag181
aS'Modulation 9 Amount'
p2641
aS'Amount'
p2642
aS'Modulation 9'
p2643
aS'Modulation_9_Amount'
p2644
aa(lp2645
(I0
I30
I1
tp2646
ag658
aS'Modulation 10 Source'
p2647
aS'Source'
p2648
aS'Modulation 10'
p2649
aS'Modulation_10_Source'
p2650
aa(lp2651
(I0
I53
I1
tp2652
ag2436
aS'Modulation 10 Destination'
p2653
aS'Destination'
p2654
aS'Modulation 10'
p2655
aS'Modulation_10_Destination'
p2656
aa(lp2657
(I0
I127
I1
tp2658
ag181
aS'Modulation 10 Amount'
p2659
aS'Amount'
p2660
aS'Modulation 10'
p2661
aS'Modulation_10_Amount'
p2662
aa(lp2663
(I0
I30
I1
tp2664
ag658
aS'Modulation 11 Source'
p2665
aS'Source'
p2666
aS'Modulation 11'
p2667
aS'Modulation_11_Source'
p2668
aa(lp2669
(I0
I53
I1
tp2670
ag2436
aS'Modulation 11 Destination'
p2671
aS'Destination'
p2672
aS'Modulation 11'
p2673
aS'Modulation_11_Destination'
p2674
aa(lp2675
(I0
I127
I1
tp2676
ag181
aS'Modulation 11 Amount'
p2677
aS'Amount'
p2678
aS'Modulation 11'
p2679
aS'Modulation_11_Amount'
p2680
aa(lp2681
(I0
I30
I1
tp2682
ag658
aS'Modulation 12 Source'
p2683
aS'Source'
p2684
aS'Modulation 12'
p2685
aS'Modulation_12_Source'
p2686
aa(lp2687
(I0
I53
I1
tp2688
ag2436
aS'Modulation 12 Destination'
p2689
aS'Destination'
p2690
aS'Modulation 12'
p2691
aS'Modulation_12_Destination'
p2692
aa(lp2693
(I0
I127
I1
tp2694
ag181
aS'Modulation 12 Amount'
p2695
aS'Amount'
p2696
aS'Modulation 12'
p2697
aS'Modulation_12_Amount'
p2698
aa(lp2699
(I0
I30
I1
tp2700
ag658
aS'Modulation 13 Source'
p2701
aS'Source'
p2702
aS'Modulation 13'
p2703
aS'Modulation_13_Source'
p2704
aa(lp2705
(I0
I53
I1
tp2706
ag2436
aS'Modulation 13 Destination'
p2707
aS'Destination'
p2708
aS'Modulation 13'
p2709
aS'Modulation_13_Destination'
p2710
aa(lp2711
(I0
I127
I1
tp2712
ag181
aS'Modulation 13 Amount'
p2713
aS'Amount'
p2714
aS'Modulation 13'
p2715
aS'Modulation_13_Amount'
p2716
aa(lp2717
(I0
I30
I1
tp2718
ag658
aS'Modulation 14 Source'
p2719
aS'Source'
p2720
aS'Modulation 14'
p2721
aS'Modulation_14_Source'
p2722
aa(lp2723
(I0
I53
I1
tp2724
ag2436
aS'Modulation 14 Destination'
p2725
aS'Destination'
p2726
aS'Modulation 14'
p2727
aS'Modulation_14_Destination'
p2728
aa(lp2729
(I0
I127
I1
tp2730
ag181
aS'Modulation 14 Amount'
p2731
aS'Amount'
p2732
aS'Modulation 14'
p2733
aS'Modulation_14_Amount'
p2734
aa(lp2735
(I0
I30
I1
tp2736
ag658
aS'Modulation 15 Source'
p2737
aS'Source'
p2738
aS'Modulation 15'
p2739
aS'Modulation_15_Source'
p2740
aa(lp2741
(I0
I53
I1
tp2742
ag2436
aS'Modulation 15 Destination'
p2743
aS'Destination'
p2744
aS'Modulation 15'
p2745
aS'Modulation_15_Destination'
p2746
aa(lp2747
(I0
I127
I1
tp2748
ag181
aS'Modulation 15 Amount'
p2749
aS'Amount'
p2750
aS'Modulation 15'
p2751
aS'Modulation_15_Amount'
p2752
aa(lp2753
(I0
I30
I1
tp2754
ag658
aS'Modulation 16 Source'
p2755
aS'Source'
p2756
aS'Modulation 16'
p2757
aS'Modulation_16_Source'
p2758
aa(lp2759
(I0
I53
I1
tp2760
ag2436
aS'Modulation 16 Destination'
p2761
aS'Destination'
p2762
aS'Modulation 16'
p2763
aS'Modulation_16_Destination'
p2764
aa(lp2765
(I0
I127
I1
tp2766
ag181
aS'Modulation 16 Amount'
p2767
aS'Amount'
p2768
aS'Modulation 16'
p2769
aS'Modulation_16_Amount'
p2770
aag2
ag2
a(lp2771
(I0
I3
I1
tp2772
a(g703
g702
S'One Shot'
p2773
S'Hold'
p2774
tp2775
aS'Arpeggiator Mode'
p2776
aS'Mode'
p2777
aS'Arpeggiator'
p2778
aS'Arpeggiator_Mode'
p2779
aa(lp2780
(I0
I16
I1
tp2781
a(S'User'
p2782
g398
g399
g400
g401
g402
g403
g404
g405
g406
g407
S'10'
p2783
S'11'
p2784
S'12'
p2785
S'13'
p2786
S'14'
p2787
S'15'
p2788
tp2789
aS'Arpeggiator Pattern'
p2790
aS'Pattern'
p2791
aS'Arpeggiator'
p2792
aS'Arpeggiator_Pattern'
p2793
aag2
a(lp2794
(I0
I42
I1
tp2795
a(lp2796
S'1/96'
p2797
aS'1/48'
p2798
aS'1/32 '
p2799
aS'1/16T'
p2800
aS'1/32.'
p2801
aS'1/16 '
p2802
aS'1/8T'
p2803
aS'1/16.'
p2804
aS'1/8 '
p2805
aS'1/4T'
p2806
aS'1/8.'
p2807
aS'1/4 '
p2808
aS'1/2T'
p2809
aS'1/4.'
p2810
aS'1/2 '
p2811
aS'1/1T'
p2812
aS'1/2.'
p2813
aS'1 bar'
p2814
aS'1.5 bars'
p2815
aS'2 bars'
p2816
aS'2.5 bars'
p2817
aS'3 bars'
p2818
aS'3.5 bars'
p2819
aS'4 bars'
p2820
aS'5 bars'
p2821
aS'6 bars'
p2822
aS'7 bars'
p2823
aS'8 bars'
p2824
aS'9 bars'
p2825
aS'10 bars'
p2826
aS'12 bars'
p2827
aS'14 bars'
p2828
aS'16 bars'
p2829
aS'18 bars'
p2830
aS'20 bars'
p2831
aS'24 bars'
p2832
aS'28 bars'
p2833
aS'32 bars'
p2834
aS'36 bars'
p2835
aS'40 bars'
p2836
aS'48 bars'
p2837
aS'56 bars'
p2838
aS'64 bars'
p2839
aaS'Arpeggiator Clock'
p2840
aS'Clock'
p2841
aS'Arpeggiator'
p2842
aS'Arpeggiator_Clock'
p2843
aa(lp2844
(I0
I43
I1
tp2845
a(S'1/96'
p2846
S'1/48'
p2847
S'1/32'
p2848
S'1/16T'
p2849
S'1/32.'
p2850
S'1/16'
p2851
S'1/8T'
p2852
S'1/16.'
p2853
S'1/8'
p2854
S'1/4T'
p2855
S'1/8.'
p2856
S'1/4'
p2857
S'1/2T'
p2858
S'1/4.'
p2859
S'1/2'
p2860
S'1/1T'
p2861
S'1/2.'
p2862
S'1 bar'
p2863
S'1.5 bars'
p2864
S'2 bars'
p2865
S'2.5 bars'
p2866
S'3 bars'
p2867
S'3.5 bars'
p2868
S'4 bars'
p2869
S'5 bars'
p2870
S'6 bars'
p2871
S'7 bars'
p2872
S'8 bars'
p2873
S'9 bars'
p2874
S'10 bars'
p2875
S'12 bars'
p2876
S'14 bars'
p2877
S'16 bars'
p2878
S'18 bars'
p2879
S'20 bars'
p2880
S'24 bars'
p2881
S'28 bars'
p2882
S'32 bars'
p2883
S'36 bars'
p2884
S'40 bars'
p2885
S'48 bars'
p2886
S'56 bars'
p2887
S'64 bars'
p2888
S'legato'
p2889
tp2890
aS'Arpeggiator Length'
p2891
aS'Length'
p2892
aS'Arpeggiator'
p2893
aS'Arpeggiator_Length'
p2894
aa(lp2895
(I0
I9
I1
tp2896
a(g399
g400
g401
g402
g403
g404
g405
g406
g407
S'10'
p2897
tp2898
aS'Arpeggiator Octave'
p2899
aS'Octave'
p2900
aS'Arpeggiator'
p2901
aS'Arpeggiator_Octave'
p2902
aa(lp2903
(I0
I3
I1
tp2904
a(S'Up'
p2905
S'Down'
p2906
S'Alt Up'
p2907
S'Alt Down'
p2908
tp2909
aS'Arpeggiator Direction'
p2910
aS'Direction'
p2911
aS'Arpeggiator'
p2912
aS'Arpeggiator_Direction'
p2913
aa(lp2914
(I0
I5
I1
tp2915
a(lp2916
S'as played'
p2917
aS'reversed'
p2918
aS'Key Lo>Hi'
p2919
aS'Key Hi>Lo'
p2920
aS'Vel Lo>Hi'
p2921
aS'Vel Hi>Lo'
p2922
aaS'Arpeggiator Sort Order'
p2923
aS'Order'
p2924
aS'Arpeggiator Sort'
p2925
aS'Arpeggiator_Sort_Order'
p2926
aa(lp2927
(I0
I6
I1
tp2928
a(lp2929
S'Each Note'
p2930
aS'First Note'
p2931
aS'Last Note'
p2932
aS'fix 32'
p2933
aS'fix 64'
p2934
aS'fix 100'
p2935
aS'fix 127'
p2936
aaS'Arpeggiator Velocity'
p2937
aS'Velocity'
p2938
aS'Arpeggiator'
p2939
aS'Arpeggiator_Velocity'
p2940
aa(lp2941
(I0
I127
I1
tp2942
ag526
aS'Arpeggiator Timing Factor'
p2943
aS'Factor'
p2944
aS'Arpeggiator Timing'
p2945
aS'Arpeggiator_Timing_Factor'
p2946
aag2
a(lp2947
(I0
I1
I1
tp2948
ag908
aS'Arpeggiator Ptn Reset'
p2949
aS'Reset'
p2950
aS'Arpeggiator Ptn'
p2951
aS'Arpeggiator_Ptn_Reset'
p2952
aa(lp2953
(I0
I15
I1
tp2954
a(g399
g400
g401
g402
g403
g404
g405
g406
g407
S'10'
p2955
S'11'
p2956
S'12'
p2957
S'13'
p2958
S'14'
p2959
S'15'
p2960
S'16'
p2961
tp2962
aS'Arpeggiator Ptn Length'
p2963
aS'Length'
p2964
aS'Arpeggiator Ptn'
p2965
aS'Arpeggiator_Ptn_Length'
p2966
aag2
ag2
a(lp2967
(I0
I127
I1
tp2968
a(S'40'
p2969
S'42'
p2970
S'44'
p2971
S'46'
p2972
S'48'
p2973
S'50'
p2974
S'52'
p2975
S'54'
p2976
S'56'
p2977
S'58'
p2978
S'60'
p2979
S'62'
p2980
S'64'
p2981
S'66'
p2982
S'68'
p2983
S'70'
p2984
S'72'
p2985
S'74'
p2986
S'76'
p2987
S'78'
p2988
S'80'
p2989
S'82'
p2990
S'84'
p2991
S'86'
p2992
S'88'
p2993
S'90'
p2994
S'91'
p2995
S'92'
p2996
S'93'
p2997
S'94'
p2998
S'95'
p2999
S'96'
p3000
S'97'
p3001
S'98'
p3002
S'99'
p3003
S'100'
p3004
S'101'
p3005
S'102'
p3006
S'103'
p3007
S'104'
p3008
S'105'
p3009
S'106'
p3010
S'107'
p3011
S'108'
p3012
S'109'
p3013
S'110'
p3014
S'111'
p3015
S'112'
p3016
S'113'
p3017
S'114'
p3018
S'115'
p3019
S'116'
p3020
S'117'
p3021
S'118'
p3022
S'119'
p3023
S'120'
p3024
S'121'
p3025
S'122'
p3026
S'123'
p3027
S'124'
p3028
S'125'
p3029
S'126'
p3030
S'127'
p3031
S'128'
p3032
S'129'
p3033
S'130'
p3034
S'131'
p3035
S'132'
p3036
S'133'
p3037
S'134'
p3038
S'135'
p3039
S'136'
p3040
S'137'
p3041
S'138'
p3042
S'139'
p3043
S'140'
p3044
S'141'
p3045
S'142'
p3046
S'143'
p3047
S'144'
p3048
S'145'
p3049
S'146'
p3050
S'147'
p3051
S'148'
p3052
S'149'
p3053
S'150'
p3054
S'151'
p3055
S'152'
p3056
S'153'
p3057
S'154'
p3058
S'155'
p3059
S'156'
p3060
S'157'
p3061
S'158'
p3062
S'159'
p3063
S'160'
p3064
S'161'
p3065
S'162'
p3066
S'163'
p3067
S'164'
p3068
S'165'
p3069
S'170'
p3070
S'175'
p3071
S'180'
p3072
S'185'
p3073
S'190'
p3074
S'195'
p3075
S'200'
p3076
S'205'
p3077
S'210'
p3078
S'215'
p3079
S'220'
p3080
S'225'
p3081
S'230'
p3082
S'235'
p3083
S'240'
p3084
S'245'
p3085
S'250'
p3086
S'255'
p3087
S'260'
p3088
S'265'
p3089
S'270'
p3090
S'275'
p3091
S'280'
p3092
S'285'
p3093
S'290'
p3094
S'295'
p3095
S'300'
p3096
tp3097
aS'Arpeggiator Tempo'
p3098
aS'Tempo'
p3099
aS'Arpeggiator'
p3100
aS'Arpeggiator_Tempo'
p3101
aa(lp3102
(I0
I127
I1
tp3103
ag3097
aS'Arp Pattern Step/Glide/Accent 1'
p3104
ag399
aS'Arp Pattern Step/Glide/Accent'
p3105
aS'Arp_Pattern_Step_Glide_Accent_1'
p3106
aa(lp3107
(I0
I127
I1
tp3108
ag3097
aS'Arp Pattern Step/Glide/Accent 2'
p3109
ag400
aS'Arp Pattern Step/Glide/Accent'
p3110
aS'Arp_Pattern_Step_Glide_Accent_2'
p3111
aa(lp3112
(I0
I127
I1
tp3113
ag3097
aS'Arp Pattern Step/Glide/Accent 3'
p3114
ag401
aS'Arp Pattern Step/Glide/Accent'
p3115
aS'Arp_Pattern_Step_Glide_Accent_3'
p3116
aa(lp3117
(I0
I127
I1
tp3118
ag3097
aS'Arp Pattern Step/Glide/Accent 4'
p3119
ag402
aS'Arp Pattern Step/Glide/Accent'
p3120
aS'Arp_Pattern_Step_Glide_Accent_4'
p3121
aa(lp3122
(I0
I127
I1
tp3123
ag3097
aS'Arp Pattern Step/Glide/Accent 5'
p3124
ag403
aS'Arp Pattern Step/Glide/Accent'
p3125
aS'Arp_Pattern_Step_Glide_Accent_5'
p3126
aa(lp3127
(I0
I127
I1
tp3128
ag3097
aS'Arp Pattern Step/Glide/Accent 6'
p3129
ag404
aS'Arp Pattern Step/Glide/Accent'
p3130
aS'Arp_Pattern_Step_Glide_Accent_6'
p3131
aa(lp3132
(I0
I127
I1
tp3133
ag3097
aS'Arp Pattern Step/Glide/Accent 7'
p3134
ag405
aS'Arp Pattern Step/Glide/Accent'
p3135
aS'Arp_Pattern_Step_Glide_Accent_7'
p3136
aa(lp3137
(I0
I127
I1
tp3138
ag3097
aS'Arp Pattern Step/Glide/Accent 8'
p3139
ag406
aS'Arp Pattern Step/Glide/Accent'
p3140
aS'Arp_Pattern_Step_Glide_Accent_8'
p3141
aa(lp3142
(I0
I127
I1
tp3143
ag3097
aS'Arp Pattern Step/Glide/Accent 9'
p3144
ag407
aS'Arp Pattern Step/Glide/Accent'
p3145
aS'Arp_Pattern_Step_Glide_Accent_9'
p3146
aa(lp3147
(I0
I127
I1
tp3148
ag3097
aS'Arp Pattern Step/Glide/Accent 10'
p3149
aS'10'
p3150
aS'Arp Pattern Step/Glide/Accent'
p3151
aS'Arp_Pattern_Step_Glide_Accent_10'
p3152
aa(lp3153
(I0
I127
I1
tp3154
ag3097
aS'Arp Pattern Step/Glide/Accent 11'
p3155
aS'11'
p3156
aS'Arp Pattern Step/Glide/Accent'
p3157
aS'Arp_Pattern_Step_Glide_Accent_11'
p3158
aa(lp3159
(I0
I127
I1
tp3160
ag3097
aS'Arp Pattern Step/Glide/Accent 12'
p3161
aS'12'
p3162
aS'Arp Pattern Step/Glide/Accent'
p3163
aS'Arp_Pattern_Step_Glide_Accent_12'
p3164
aa(lp3165
(I0
I127
I1
tp3166
ag3097
aS'Arp Pattern Step/Glide/Accent 13'
p3167
aS'13'
p3168
aS'Arp Pattern Step/Glide/Accent'
p3169
aS'Arp_Pattern_Step_Glide_Accent_13'
p3170
aa(lp3171
(I0
I127
I1
tp3172
ag3097
aS'Arp Pattern Step/Glide/Accent 14'
p3173
aS'14'
p3174
aS'Arp Pattern Step/Glide/Accent'
p3175
aS'Arp_Pattern_Step_Glide_Accent_14'
p3176
aa(lp3177
(I0
I127
I1
tp3178
ag3097
aS'Arp Pattern Step/Glide/Accent 15'
p3179
aS'15'
p3180
aS'Arp Pattern Step/Glide/Accent'
p3181
aS'Arp_Pattern_Step_Glide_Accent_15'
p3182
aa(lp3183
(I0
I127
I1
tp3184
ag3097
aS'Arp Pattern Step/Glide/Accent 16'
p3185
aS'16'
p3186
aS'Arp Pattern Step/Glide/Accent'
p3187
aS'Arp_Pattern_Step_Glide_Accent_16'
p3188
aa(lp3189
(I0
I127
I1
tp3190
ag3097
aS'Arp Pattern Timing/Length 1'
p3191
ag399
aS'Arp Pattern Timing/Length'
p3192
aS'Arp_Pattern_Timing_Length_1'
p3193
aa(lp3194
(I0
I127
I1
tp3195
ag3097
aS'Arp Pattern Timing/Length 2'
p3196
ag400
aS'Arp Pattern Timing/Length'
p3197
aS'Arp_Pattern_Timing_Length_2'
p3198
aa(lp3199
(I0
I127
I1
tp3200
ag3097
aS'Arp Pattern Timing/Length 3'
p3201
ag401
aS'Arp Pattern Timing/Length'
p3202
aS'Arp_Pattern_Timing_Length_3'
p3203
aa(lp3204
(I0
I127
I1
tp3205
ag3097
aS'Arp Pattern Timing/Length 4'
p3206
ag402
aS'Arp Pattern Timing/Length'
p3207
aS'Arp_Pattern_Timing_Length_4'
p3208
aa(lp3209
(I0
I127
I1
tp3210
ag3097
aS'Arp Pattern Timing/Length 5'
p3211
ag403
aS'Arp Pattern Timing/Length'
p3212
aS'Arp_Pattern_Timing_Length_5'
p3213
aa(lp3214
(I0
I127
I1
tp3215
ag3097
aS'Arp Pattern Timing/Length 6'
p3216
ag404
aS'Arp Pattern Timing/Length'
p3217
aS'Arp_Pattern_Timing_Length_6'
p3218
aa(lp3219
(I0
I127
I1
tp3220
ag3097
aS'Arp Pattern Timing/Length 7'
p3221
ag405
aS'Arp Pattern Timing/Length'
p3222
aS'Arp_Pattern_Timing_Length_7'
p3223
aa(lp3224
(I0
I127
I1
tp3225
ag3097
aS'Arp Pattern Timing/Length 8'
p3226
ag406
aS'Arp Pattern Timing/Length'
p3227
aS'Arp_Pattern_Timing_Length_8'
p3228
aa(lp3229
(I0
I127
I1
tp3230
ag3097
aS'Arp Pattern Timing/Length 9'
p3231
ag407
aS'Arp Pattern Timing/Length'
p3232
aS'Arp_Pattern_Timing_Length_9'
p3233
aa(lp3234
(I0
I127
I1
tp3235
ag3097
aS'Arp Pattern Timing/Length 10'
p3236
aS'10'
p3237
aS'Arp Pattern Timing/Length'
p3238
aS'Arp_Pattern_Timing_Length_10'
p3239
aa(lp3240
(I0
I127
I1
tp3241
ag3097
aS'Arp Pattern Timing/Length 11'
p3242
aS'11'
p3243
aS'Arp Pattern Timing/Length'
p3244
aS'Arp_Pattern_Timing_Length_11'
p3245
aa(lp3246
(I0
I127
I1
tp3247
ag3097
aS'Arp Pattern Timing/Length 12'
p3248
aS'12'
p3249
aS'Arp Pattern Timing/Length'
p3250
aS'Arp_Pattern_Timing_Length_12'
p3251
aa(lp3252
(I0
I127
I1
tp3253
ag3097
aS'Arp Pattern Timing/Length 13'
p3254
aS'13'
p3255
aS'Arp Pattern Timing/Length'
p3256
aS'Arp_Pattern_Timing_Length_13'
p3257
aa(lp3258
(I0
I127
I1
tp3259
ag3097
aS'Arp Pattern Timing/Length 14'
p3260
aS'14'
p3261
aS'Arp Pattern Timing/Length'
p3262
aS'Arp_Pattern_Timing_Length_14'
p3263
aa(lp3264
(I0
I127
I1
tp3265
ag3097
aS'Arp Pattern Timing/Length 15'
p3266
aS'15'
p3267
aS'Arp Pattern Timing/Length'
p3268
aS'Arp_Pattern_Timing_Length_15'
p3269
aa(lp3270
(I0
I127
I1
tp3271
ag3097
aS'Arp Pattern Timing/Length 16'
p3272
aS'16'
p3273
aS'Arp Pattern Timing/Length'
p3274
aS'Arp_Pattern_Timing_Length_16'
p3275
aag2
ag2
ag2
ag2
a(lp3276
(I32
I127
I1
tp3277
a(S' '
p3278
S'!'
p3279
S'"'
p3280
S'#'
p3281
S'$'
p3282
S'%'
p3283
S'&'
p3284
S"'"
p3285
S'('
p3286
S')'
p3287
S'*'
p3288
S'+'
p3289
S','
p3290
S'-'
p3291
S'.'
p3292
S'/'
p3293
S'0'
p3294
S'1'
p3295
S'2'
p3296
S'3'
p3297
S'4'
p3298
S'5'
p3299
S'6'
p3300
S'7'
p3301
S'8'
p3302
S'9'
p3303
S':'
p3304
S';'
p3305
S'<'
p3306
S'='
p3307
S'>'
p3308
S'?'
p3309
S'@'
p3310
S'A'
p3311
S'B'
p3312
S'C'
p3313
S'D'
p3314
S'E'
p3315
S'F'
p3316
S'G'
p3317
S'H'
p3318
S'I'
p3319
S'J'
p3320
S'K'
p3321
S'L'
p3322
S'M'
p3323
S'N'
p3324
S'O'
p3325
S'P'
p3326
S'Q'
p3327
S'R'
p3328
S'S'
p3329
S'T'
p3330
S'U'
p3331
S'V'
p3332
S'W'
p3333
S'X'
p3334
S'Y'
p3335
S'Z'
p3336
S'['
p3337
S'\\'
p3338
S']'
p3339
S'^'
p3340
S'_'
p3341
S'`'
p3342
S'a'
p3343
S'b'
p3344
S'c'
p3345
S'd'
p3346
S'e'
p3347
S'f'
p3348
S'g'
p3349
S'h'
p3350
S'i'
p3351
S'j'
p3352
S'k'
p3353
S'l'
p3354
S'm'
p3355
S'n'
p3356
S'o'
p3357
S'p'
p3358
S'q'
p3359
S'r'
p3360
S's'
p3361
S't'
p3362
S'u'
p3363
S'v'
p3364
S'w'
p3365
S'x'
p3366
S'y'
p3367
S'z'
p3368
S'{'
p3369
S'|'
p3370
S'}'
p3371
S'~'
p3372
S'\xc2\xb0'
p3373
tp3374
aS'Name Char 00'
p3375
aS'00'
p3376
aS'Name Char'
p3377
aS'Name_Char_00'
p3378
aa(lp3379
(I32
I127
I1
tp3380
ag3374
aS'Name Char 01'
p3381
aS'01'
p3382
aS'Name Char'
p3383
aS'Name_Char_01'
p3384
aa(lp3385
(I32
I127
I1
tp3386
ag3374
aS'Name Char 02'
p3387
aS'02'
p3388
aS'Name Char'
p3389
aS'Name_Char_02'
p3390
aa(lp3391
(I32
I127
I1
tp3392
ag3374
aS'Name Char 03'
p3393
aS'03'
p3394
aS'Name Char'
p3395
aS'Name_Char_03'
p3396
aa(lp3397
(I32
I127
I1
tp3398
ag3374
aS'Name Char 04'
p3399
aS'04'
p3400
aS'Name Char'
p3401
aS'Name_Char_04'
p3402
aa(lp3403
(I32
I127
I1
tp3404
ag3374
aS'Name Char 05'
p3405
aS'05'
p3406
aS'Name Char'
p3407
aS'Name_Char_05'
p3408
aa(lp3409
(I32
I127
I1
tp3410
ag3374
aS'Name Char 06'
p3411
aS'06'
p3412
aS'Name Char'
p3413
aS'Name_Char_06'
p3414
aa(lp3415
(I32
I127
I1
tp3416
ag3374
aS'Name Char 07'
p3417
aS'07'
p3418
aS'Name Char'
p3419
aS'Name_Char_07'
p3420
aa(lp3421
(I32
I127
I1
tp3422
ag3374
aS'Name Char 08'
p3423
aS'08'
p3424
aS'Name Char'
p3425
aS'Name_Char_08'
p3426
aa(lp3427
(I32
I127
I1
tp3428
ag3374
aS'Name Char 09'
p3429
aS'09'
p3430
aS'Name Char'
p3431
aS'Name_Char_09'
p3432
aa(lp3433
(I32
I127
I1
tp3434
ag3374
aS'Name Char 10'
p3435
aS'10'
p3436
aS'Name Char'
p3437
aS'Name_Char_10'
p3438
aa(lp3439
(I32
I127
I1
tp3440
ag3374
aS'Name Char 11'
p3441
aS'11'
p3442
aS'Name Char'
p3443
aS'Name_Char_11'
p3444
aa(lp3445
(I32
I127
I1
tp3446
ag3374
aS'Name Char 12'
p3447
aS'12'
p3448
aS'Name Char'
p3449
aS'Name_Char_12'
p3450
aa(lp3451
(I32
I127
I1
tp3452
ag3374
aS'Name Char 13'
p3453
aS'13'
p3454
aS'Name Char'
p3455
aS'Name_Char_13'
p3456
aa(lp3457
(I32
I127
I1
tp3458
ag3374
aS'Name Char 14'
p3459
aS'14'
p3460
aS'Name Char'
p3461
aS'Name_Char_14'
p3462
aa(lp3463
(I32
I127
I1
tp3464
ag3374
aS'Name Char 15'
p3465
aS'15'
p3466
aS'Name Char'
p3467
aS'Name_Char_15'
p3468
aa(lp3469
(I0
I12
I1
tp3470
a(lp3471
S'Init'
p3472
aS'Arp '
p3473
aS'Atmo'
p3474
aS'Bass'
p3475
aS'Drum'
p3476
aS'FX  '
p3477
aS'Keys'
p3478
aS'Lead'
p3479
aS'Mono'
p3480
aS'Pad '
p3481
aS'Perc'
p3482
aS'Poly'
p3483
aS'Seq '
p3484
aaS'Category'
p3485
ag3485
ag928
ag3485
aag2
ag2
ag2
a.